ccopy_reg
_reconstructor
p1
(cmatplotlib.font_manager
FontManager
p2
c__builtin__
object
p3
NtRp4
(dp5
S'ttflist'
p6
(lp7
g1
(cmatplotlib.font_manager
FontEntry
p8
g3
NtRp9
(dp10
S'style'
p11
Vnormal
p12
sS'name'
p13
S'STIXGeneral'
p14
sS'weight'
p15
I700
sS'stretch'
p16
g12
sS'variant'
p17
g12
sS'fname'
p18
V/Users/vmasrani/miniconda2/envs/cvi/lib/python2.7/site-packages/matplotlib/mpl-data/fonts/ttf/STIXGeneralBol.ttf
p19
sS'size'
p20
Vscalable
p21
sbag1
(g8
g3
NtRp22
(dp23
g11
g12
sg13
S'STIXSizeFourSym'
p24
sg15
I400
sg16
g12
sg17
g12
sg18
V/Users/vmasrani/miniconda2/envs/cvi/lib/python2.7/site-packages/matplotlib/mpl-data/fonts/ttf/STIXSizFourSymReg.ttf
p25
sg20
g21
sbag1
(g8
g3
NtRp26
(dp27
g11
g12
sg13
S'Bitstream Vera Sans'
p28
sg15
I700
sg16
g12
sg17
g12
sg18
V/Users/vmasrani/miniconda2/envs/cvi/lib/python2.7/site-packages/matplotlib/mpl-data/fonts/ttf/VeraBd.ttf
p29
sg20
g21
sbag1
(g8
g3
NtRp30
(dp31
g11
Vitalic
p32
sg13
S'STIXGeneral'
p33
sg15
I400
sg16
g12
sg17
g12
sg18
V/Users/vmasrani/miniconda2/envs/cvi/lib/python2.7/site-packages/matplotlib/mpl-data/fonts/ttf/STIXGeneralItalic.ttf
p34
sg20
g21
sbag1
(g8
g3
NtRp35
(dp36
g11
g32
sg13
S'STIXNonUnicode'
p37
sg15
I700
sg16
g12
sg17
g12
sg18
V/Users/vmasrani/miniconda2/envs/cvi/lib/python2.7/site-packages/matplotlib/mpl-data/fonts/ttf/STIXNonUniBolIta.ttf
p38
sg20
g21
sbag1
(g8
g3
NtRp39
(dp40
g11
g12
sg13
S'STIXSizeFourSym'
p41
sg15
I700
sg16
g12
sg17
g12
sg18
V/Users/vmasrani/miniconda2/envs/cvi/lib/python2.7/site-packages/matplotlib/mpl-data/fonts/ttf/STIXSizFourSymBol.ttf
p42
sg20
g21
sbag1
(g8
g3
NtRp43
(dp44
g11
g32
sg13
S'STIXNonUnicode'
p45
sg15
I400
sg16
g12
sg17
g12
sg18
V/Users/vmasrani/miniconda2/envs/cvi/lib/python2.7/site-packages/matplotlib/mpl-data/fonts/ttf/STIXNonUniIta.ttf
p46
sg20
g21
sbag1
(g8
g3
NtRp47
(dp48
g11
g12
sg13
S'STIXSizeThreeSym'
p49
sg15
I700
sg16
g12
sg17
g12
sg18
V/Users/vmasrani/miniconda2/envs/cvi/lib/python2.7/site-packages/matplotlib/mpl-data/fonts/ttf/STIXSizThreeSymBol.ttf
p50
sg20
g21
sbag1
(g8
g3
NtRp51
(dp52
g11
g12
sg13
S'cmex10'
p53
sg15
I400
sg16
g12
sg17
g12
sg18
V/Users/vmasrani/miniconda2/envs/cvi/lib/python2.7/site-packages/matplotlib/mpl-data/fonts/ttf/cmex10.ttf
p54
sg20
g21
sbag1
(g8
g3
NtRp55
(dp56
g11
g12
sg13
S'STIXGeneral'
p57
sg15
I400
sg16
g12
sg17
g12
sg18
V/Users/vmasrani/miniconda2/envs/cvi/lib/python2.7/site-packages/matplotlib/mpl-data/fonts/ttf/STIXGeneral.ttf
p58
sg20
g21
sbag1
(g8
g3
NtRp59
(dp60
g11
g12
sg13
S'STIXNonUnicode'
p61
sg15
I700
sg16
g12
sg17
g12
sg18
V/Users/vmasrani/miniconda2/envs/cvi/lib/python2.7/site-packages/matplotlib/mpl-data/fonts/ttf/STIXNonUniBol.ttf
p62
sg20
g21
sbag1
(g8
g3
NtRp63
(dp64
g11
Voblique
p65
sg13
S'Bitstream Vera Sans'
p66
sg15
I700
sg16
g12
sg17
g12
sg18
V/Users/vmasrani/miniconda2/envs/cvi/lib/python2.7/site-packages/matplotlib/mpl-data/fonts/ttf/VeraBI.ttf
p67
sg20
g21
sbag1
(g8
g3
NtRp68
(dp69
g11
g12
sg13
S'STIXSizeOneSym'
p70
sg15
I400
sg16
g12
sg17
g12
sg18
V/Users/vmasrani/miniconda2/envs/cvi/lib/python2.7/site-packages/matplotlib/mpl-data/fonts/ttf/STIXSizOneSymReg.ttf
p71
sg20
g21
sbag1
(g8
g3
NtRp72
(dp73
g11
g12
sg13
S'STIXSizeThreeSym'
p74
sg15
I400
sg16
g12
sg17
g12
sg18
V/Users/vmasrani/miniconda2/envs/cvi/lib/python2.7/site-packages/matplotlib/mpl-data/fonts/ttf/STIXSizThreeSymReg.ttf
p75
sg20
g21
sbag1
(g8
g3
NtRp76
(dp77
g11
g65
sg13
S'Bitstream Vera Sans Mono'
p78
sg15
I400
sg16
g12
sg17
g12
sg18
V/Users/vmasrani/miniconda2/envs/cvi/lib/python2.7/site-packages/matplotlib/mpl-data/fonts/ttf/VeraMoIt.ttf
p79
sg20
g21
sbag1
(g8
g3
NtRp80
(dp81
g11
g12
sg13
S'Bitstream Vera Serif'
p82
sg15
I400
sg16
g12
sg17
g12
sg18
V/Users/vmasrani/miniconda2/envs/cvi/lib/python2.7/site-packages/matplotlib/mpl-data/fonts/ttf/VeraSe.ttf
p83
sg20
g21
sbag1
(g8
g3
NtRp84
(dp85
g11
g12
sg13
S'Bitstream Vera Sans'
p86
sg15
I400
sg16
g12
sg17
g12
sg18
V/Users/vmasrani/miniconda2/envs/cvi/lib/python2.7/site-packages/matplotlib/mpl-data/fonts/ttf/Vera.ttf
p87
sg20
g21
sbag1
(g8
g3
NtRp88
(dp89
g11
g65
sg13
S'Bitstream Vera Sans Mono'
p90
sg15
I700
sg16
g12
sg17
g12
sg18
V/Users/vmasrani/miniconda2/envs/cvi/lib/python2.7/site-packages/matplotlib/mpl-data/fonts/ttf/VeraMoBI.ttf
p91
sg20
g21
sbag1
(g8
g3
NtRp92
(dp93
g11
g12
sg13
S'cmss10'
p94
sg15
I400
sg16
g12
sg17
g12
sg18
V/Users/vmasrani/miniconda2/envs/cvi/lib/python2.7/site-packages/matplotlib/mpl-data/fonts/ttf/cmss10.ttf
p95
sg20
g21
sbag1
(g8
g3
NtRp96
(dp97
g11
g32
sg13
S'STIXGeneral'
p98
sg15
I700
sg16
g12
sg17
g12
sg18
V/Users/vmasrani/miniconda2/envs/cvi/lib/python2.7/site-packages/matplotlib/mpl-data/fonts/ttf/STIXGeneralBolIta.ttf
p99
sg20
g21
sbag1
(g8
g3
NtRp100
(dp101
g11
g12
sg13
S'cmb10'
p102
sg15
I400
sg16
g12
sg17
g12
sg18
V/Users/vmasrani/miniconda2/envs/cvi/lib/python2.7/site-packages/matplotlib/mpl-data/fonts/ttf/cmb10.ttf
p103
sg20
g21
sbag1
(g8
g3
NtRp104
(dp105
g11
g65
sg13
S'Bitstream Vera Sans'
p106
sg15
I400
sg16
g12
sg17
g12
sg18
V/Users/vmasrani/miniconda2/envs/cvi/lib/python2.7/site-packages/matplotlib/mpl-data/fonts/ttf/VeraIt.ttf
p107
sg20
g21
sbag1
(g8
g3
NtRp108
(dp109
g11
g12
sg13
S'Bitstream Vera Sans Mono'
p110
sg15
I400
sg16
g12
sg17
g12
sg18
V/Users/vmasrani/miniconda2/envs/cvi/lib/python2.7/site-packages/matplotlib/mpl-data/fonts/ttf/VeraMono.ttf
p111
sg20
g21
sbag1
(g8
g3
NtRp112
(dp113
g11
g12
sg13
S'cmsy10'
p114
sg15
I400
sg16
g12
sg17
g12
sg18
V/Users/vmasrani/miniconda2/envs/cvi/lib/python2.7/site-packages/matplotlib/mpl-data/fonts/ttf/cmsy10.ttf
p115
sg20
g21
sbag1
(g8
g3
NtRp116
(dp117
g11
g12
sg13
S'Bitstream Vera Sans Mono'
p118
sg15
I700
sg16
g12
sg17
g12
sg18
V/Users/vmasrani/miniconda2/envs/cvi/lib/python2.7/site-packages/matplotlib/mpl-data/fonts/ttf/VeraMoBd.ttf
p119
sg20
g21
sbag1
(g8
g3
NtRp120
(dp121
g11
g12
sg13
S'STIXNonUnicode'
p122
sg15
I400
sg16
g12
sg17
g12
sg18
V/Users/vmasrani/miniconda2/envs/cvi/lib/python2.7/site-packages/matplotlib/mpl-data/fonts/ttf/STIXNonUni.ttf
p123
sg20
g21
sbag1
(g8
g3
NtRp124
(dp125
g11
g12
sg13
S'STIXSizeTwoSym'
p126
sg15
I700
sg16
g12
sg17
g12
sg18
V/Users/vmasrani/miniconda2/envs/cvi/lib/python2.7/site-packages/matplotlib/mpl-data/fonts/ttf/STIXSizTwoSymBol.ttf
p127
sg20
g21
sbag1
(g8
g3
NtRp128
(dp129
g11
g12
sg13
S'STIXSizeTwoSym'
p130
sg15
I400
sg16
g12
sg17
g12
sg18
V/Users/vmasrani/miniconda2/envs/cvi/lib/python2.7/site-packages/matplotlib/mpl-data/fonts/ttf/STIXSizTwoSymReg.ttf
p131
sg20
g21
sbag1
(g8
g3
NtRp132
(dp133
g11
g12
sg13
S'cmr10'
p134
sg15
I400
sg16
g12
sg17
g12
sg18
V/Users/vmasrani/miniconda2/envs/cvi/lib/python2.7/site-packages/matplotlib/mpl-data/fonts/ttf/cmr10.ttf
p135
sg20
g21
sbag1
(g8
g3
NtRp136
(dp137
g11
g12
sg13
S'cmtt10'
p138
sg15
I400
sg16
g12
sg17
g12
sg18
V/Users/vmasrani/miniconda2/envs/cvi/lib/python2.7/site-packages/matplotlib/mpl-data/fonts/ttf/cmtt10.ttf
p139
sg20
g21
sbag1
(g8
g3
NtRp140
(dp141
g11
g12
sg13
S'Bitstream Vera Serif'
p142
sg15
I700
sg16
g12
sg17
g12
sg18
V/Users/vmasrani/miniconda2/envs/cvi/lib/python2.7/site-packages/matplotlib/mpl-data/fonts/ttf/VeraSeBd.ttf
p143
sg20
g21
sbag1
(g8
g3
NtRp144
(dp145
g11
g12
sg13
S'STIXSizeOneSym'
p146
sg15
I700
sg16
g12
sg17
g12
sg18
V/Users/vmasrani/miniconda2/envs/cvi/lib/python2.7/site-packages/matplotlib/mpl-data/fonts/ttf/STIXSizOneSymBol.ttf
p147
sg20
g21
sbag1
(g8
g3
NtRp148
(dp149
g11
g12
sg13
S'STIXSizeFiveSym'
p150
sg15
I400
sg16
g12
sg17
g12
sg18
V/Users/vmasrani/miniconda2/envs/cvi/lib/python2.7/site-packages/matplotlib/mpl-data/fonts/ttf/STIXSizFiveSymReg.ttf
p151
sg20
g21
sbag1
(g8
g3
NtRp152
(dp153
g11
g12
sg13
S'cmmi10'
p154
sg15
I400
sg16
g12
sg17
g12
sg18
V/Users/vmasrani/miniconda2/envs/cvi/lib/python2.7/site-packages/matplotlib/mpl-data/fonts/ttf/cmmi10.ttf
p155
sg20
g21
sbag1
(g8
g3
NtRp156
(dp157
g11
g32
sg13
S'Trebuchet MS'
p158
sg15
I400
sg16
g12
sg17
g12
sg18
V/Library/Fonts/Trebuchet MS Italic.ttf
p159
sg20
g21
sbag1
(g8
g3
NtRp160
(dp161
g11
g12
sg13
S'Times New Roman'
p162
sg15
I500
sg16
g12
sg17
g12
sg18
V/Library/Fonts/Times New Roman.ttf
p163
sg20
g21
sbag1
(g8
g3
NtRp164
(dp165
g11
g32
sg13
S'Myriad Pro'
p166
sg15
I400
sg16
Vcondensed
p167
sg17
g12
sg18
V/Library/Fonts/MyriadPro-CondIt.otf
p168
sg20
g21
sbag1
(g8
g3
NtRp169
(dp170
g11
g12
sg13
S'Serto Urhoy'
p171
sg15
I400
sg16
g12
sg17
g12
sg18
V/usr/X11/lib/X11/fonts/OTF/SyrCOMUrhoy.otf
p172
sg20
g21
sbag1
(g8
g3
NtRp173
(dp174
g11
g12
sg13
S'Poplar Std'
p175
sg15
I900
sg16
g12
sg17
g12
sg18
V/Library/Fonts/PoplarStd.otf
p176
sg20
g21
sbag1
(g8
g3
NtRp177
(dp178
g11
g12
sg13
S'Trajan Pro 3'
p179
sg15
I700
sg16
g12
sg17
g12
sg18
V/Library/Fonts/TrajanPro3-Bold.otf
p180
sg20
g21
sbag1
(g8
g3
NtRp181
(dp182
g11
g12
sg13
S'Kozuka Gothic Pr6N'
p183
sg15
I700
sg16
g12
sg17
g12
sg18
V/Library/Fonts/KozGoPr6N-Heavy.otf
p184
sg20
g21
sbag1
(g8
g3
NtRp185
(dp186
g11
g32
sg13
S'Gill Sans MT'
p187
sg15
I400
sg16
g12
sg17
g12
sg18
V/Library/Fonts/Microsoft/Gill Sans MT Italic.ttf
p188
sg20
g21
sbag1
(g8
g3
NtRp189
(dp190
g11
g12
sg13
S'System Font'
p191
sg15
I400
sg16
g12
sg17
g12
sg18
V/System/Library/Fonts/SFNSDisplay-BoldItalic.otf
p192
sg20
g21
sbag1
(g8
g3
NtRp193
(dp194
g11
g12
sg13
S'Estrangelo Talada'
p195
sg15
I400
sg16
g12
sg17
g12
sg18
V/usr/X11/lib/X11/fonts/OTF/SyrCOMTalada.otf
p196
sg20
g21
sbag1
(g8
g3
NtRp197
(dp198
g11
g32
sg13
S'Source Sans Pro'
p199
sg15
I900
sg16
g12
sg17
g12
sg18
V/Library/Fonts/SourceSansPro-BlackIt.otf
p200
sg20
g21
sbag1
(g8
g3
NtRp201
(dp202
g11
g12
sg13
S'.SF Compact Rounded'
p203
sg15
I400
sg16
g12
sg17
g12
sg18
V/System/Library/Fonts/SFCompactRounded-Ultralight.otf
p204
sg20
g21
sbag1
(g8
g3
NtRp205
(dp206
g11
g12
sg13
S'AppleMyungjo'
p207
sg15
I400
sg16
g12
sg17
g12
sg18
V/Library/Fonts/AppleMyungjo.ttf
p208
sg20
g21
sbag1
(g8
g3
NtRp209
(dp210
g11
g12
sg13
S'Source Code Pro'
p211
sg15
I700
sg16
g12
sg17
g12
sg18
V/Library/Fonts/SourceCodePro-Bold.ttf
p212
sg20
g21
sbag1
(g8
g3
NtRp213
(dp214
g11
g12
sg13
S'Mishafi Gold'
p215
sg15
I400
sg16
g12
sg17
g12
sg18
V/Library/Fonts/Mishafi Gold.ttf
p216
sg20
g21
sbag1
(g8
g3
NtRp217
(dp218
g11
g12
sg13
S'.SF NS Text Condensed'
p219
sg15
I400
sg16
g12
sg17
g12
sg18
V/System/Library/Fonts/SFNSTextCondensed-Heavy.otf
p220
sg20
g21
sbag1
(g8
g3
NtRp221
(dp222
g11
g12
sg13
S'STIXSizeThreeSym'
p223
sg15
I700
sg16
g12
sg17
g12
sg18
V/Library/Fonts/STIXSizThreeSymBol.otf
p224
sg20
g21
sbag1
(g8
g3
NtRp225
(dp226
g11
g12
sg13
S'Symbol'
p227
sg15
I400
sg16
g12
sg17
g12
sg18
V/System/Library/Fonts/Symbol.ttf
p228
sg20
g21
sbag1
(g8
g3
NtRp229
(dp230
g11
g12
sg13
S'East Syriac Ctesiphon'
p231
sg15
I400
sg16
g12
sg17
g12
sg18
V/usr/X11/lib/X11/fonts/OTF/SyrCOMCtesiphon.otf
p232
sg20
g21
sbag1
(g8
g3
NtRp233
(dp234
g11
g12
sg13
S'Candara'
p235
sg15
I700
sg16
g12
sg17
g12
sg18
V/Library/Fonts/Microsoft/Candara Bold.ttf
p236
sg20
g21
sbag1
(g8
g3
NtRp237
(dp238
g11
g12
sg13
S'Adobe Naskh'
p239
sg15
I500
sg16
g12
sg17
g12
sg18
V/Library/Fonts/AdobeNaskh-Medium.otf
p240
sg20
g21
sbag1
(g8
g3
NtRp241
(dp242
g11
g12
sg13
S'Tw Cen MT'
p243
sg15
I400
sg16
g12
sg17
g12
sg18
V/Library/Fonts/Microsoft/Tw Cen MT.ttf
p244
sg20
g21
sbag1
(g8
g3
NtRp245
(dp246
g11
g32
sg13
S'Source Sans Pro'
p247
sg15
I400
sg16
g12
sg17
g12
sg18
V/Library/Fonts/SourceSansPro-It.otf
p248
sg20
g21
sbag1
(g8
g3
NtRp249
(dp250
g11
g12
sg13
S'System Font'
p251
sg15
I400
sg16
g12
sg17
g12
sg18
V/System/Library/Fonts/SFNSDisplay-SemiboldItalic.otf
p252
sg20
g21
sbag1
(g8
g3
NtRp253
(dp254
g11
g32
sg13
S'Minion Pro'
p255
sg15
I400
sg16
g12
sg17
g12
sg18
V/Library/Fonts/MinionPro-It.otf
p256
sg20
g21
sbag1
(g8
g3
NtRp257
(dp258
g11
g12
sg13
S'.SF Compact Rounded'
p259
sg15
I400
sg16
g12
sg17
g12
sg18
V/System/Library/Fonts/SFCompactRounded-Light.otf
p260
sg20
g21
sbag1
(g8
g3
NtRp261
(dp262
g11
g12
sg13
S'Kozuka Gothic Pr6N'
p263
sg15
I400
sg16
g12
sg17
g12
sg18
V/Library/Fonts/KozGoPr6N-Regular.otf
p264
sg20
g21
sbag1
(g8
g3
NtRp265
(dp266
g11
g12
sg13
S'.SF Compact Display'
p267
sg15
I400
sg16
g12
sg17
g12
sg18
V/System/Library/Fonts/SFCompactDisplay-Semibold.otf
p268
sg20
g21
sbag1
(g8
g3
NtRp269
(dp270
g11
g32
sg13
S'Arial'
p271
sg15
I700
sg16
g12
sg17
g12
sg18
V/Library/Fonts/Arial Bold Italic.ttf
p272
sg20
g21
sbag1
(g8
g3
NtRp273
(dp274
g11
g12
sg13
S'Tekton Pro'
p275
sg15
I700
sg16
g12
sg17
g12
sg18
V/Library/Fonts/TektonPro-Bold.otf
p276
sg20
g21
sbag1
(g8
g3
NtRp277
(dp278
g11
g12
sg13
S'Serto Batnan'
p279
sg15
I400
sg16
g12
sg17
g12
sg18
V/usr/X11/lib/X11/fonts/OTF/SyrCOMBatnan.otf
p280
sg20
g21
sbag1
(g8
g3
NtRp281
(dp282
g11
g32
sg13
S'Myriad Arabic'
p283
sg15
I400
sg16
g12
sg17
g12
sg18
V/Library/Fonts/MyriadArabic-It.otf
p284
sg20
g21
sbag1
(g8
g3
NtRp285
(dp286
g11
g32
sg13
S'Nueva Std'
p287
sg15
I400
sg16
g12
sg17
g12
sg18
V/Library/Fonts/NuevaStd-Italic.otf
p288
sg20
g21
sbag1
(g8
g3
NtRp289
(dp290
g11
g12
sg13
S'Letter Gothic Std'
p291
sg15
I500
sg16
g12
sg17
g12
sg18
V/Library/Fonts/LetterGothicStd.otf
p292
sg20
g21
sbag1
(g8
g3
NtRp293
(dp294
g11
g12
sg13
S'STIXSizeFiveSym'
p295
sg15
I400
sg16
g12
sg17
g12
sg18
V/Library/Fonts/STIXSizFiveSymReg.otf
p296
sg20
g21
sbag1
(g8
g3
NtRp297
(dp298
g11
g12
sg13
S'Serto Urhoy'
p299
sg15
I700
sg16
g12
sg17
g12
sg18
V/usr/X11/lib/X11/fonts/OTF/SyrCOMUrhoyBold.otf
p300
sg20
g21
sbag1
(g8
g3
NtRp301
(dp302
g11
g12
sg13
S'Gurmukhi MT'
p303
sg15
I400
sg16
g12
sg17
g12
sg18
V/Library/Fonts/Gurmukhi.ttf
p304
sg20
g21
sbag1
(g8
g3
NtRp305
(dp306
g11
g12
sg13
S'.SF Compact Text'
p307
sg15
I400
sg16
g12
sg17
g12
sg18
V/System/Library/Fonts/SFCompactText-Bold.otf
p308
sg20
g21
sbag1
(g8
g3
NtRp309
(dp310
g11
g32
sg13
S'Cambria'
p311
sg15
I400
sg16
g12
sg17
g12
sg18
V/Library/Fonts/Microsoft/Cambria Italic.ttf
p312
sg20
g21
sbag1
(g8
g3
NtRp313
(dp314
g11
g65
sg13
S'Tekton Pro'
p315
sg15
I700
sg16
g12
sg17
g12
sg18
V/Library/Fonts/TektonPro-BoldObl.otf
p316
sg20
g21
sbag1
(g8
g3
NtRp317
(dp318
g11
g12
sg13
S'Adobe Myungjo Std'
p319
sg15
I400
sg16
g12
sg17
g12
sg18
V/Library/Fonts/AdobeMyungjoStd-Medium.otf
p320
sg20
g21
sbag1
(g8
g3
NtRp321
(dp322
g11
g32
sg13
S'Perpetua'
p323
sg15
I700
sg16
g12
sg17
g12
sg18
V/Library/Fonts/Microsoft/Perpetua Bold Italic.ttf
p324
sg20
g21
sbag1
(g8
g3
NtRp325
(dp326
g11
g12
sg13
S'Lucida Sans Unicode'
p327
sg15
I400
sg16
g12
sg17
g12
sg18
V/Library/Fonts/Microsoft/Lucida Sans Unicode.ttf
p328
sg20
g21
sbag1
(g8
g3
NtRp329
(dp330
g11
g12
sg13
S'Microsoft Tai Le'
p331
sg15
I700
sg16
g12
sg17
g12
sg18
V/Library/Fonts/Microsoft/TaiLeb.ttf
p332
sg20
g21
sbag1
(g8
g3
NtRp333
(dp334
g11
g12
sg13
S'Verdana'
p335
sg15
I700
sg16
g12
sg17
g12
sg18
V/Library/Fonts/Microsoft/Verdana Bold.ttf
p336
sg20
g21
sbag1
(g8
g3
NtRp337
(dp338
g11
g12
sg13
S'Myriad Pro'
p339
sg15
I700
sg16
g12
sg17
g12
sg18
V/Library/Fonts/MyriadPro-Semibold.otf
p340
sg20
g21
sbag1
(g8
g3
NtRp341
(dp342
g11
g12
sg13
S'Verdana'
p343
sg15
I400
sg16
g12
sg17
g12
sg18
V/Library/Fonts/Microsoft/Verdana.ttf
p344
sg20
g21
sbag1
(g8
g3
NtRp345
(dp346
g11
g12
sg13
S'Franklin Gothic Medium'
p347
sg15
I500
sg16
g12
sg17
g12
sg18
V/Library/Fonts/Microsoft/Franklin Gothic Medium.ttf
p348
sg20
g21
sbag1
(g8
g3
NtRp349
(dp350
g11
g12
sg13
S'MingLiU_HKSCS'
p351
sg15
I400
sg16
g12
sg17
g12
sg18
V/Library/Fonts/Microsoft/mingliu_hkscs.ttf
p352
sg20
g21
sbag1
(g8
g3
NtRp353
(dp354
g11
g12
sg13
S'Kozuka Mincho Pr6N'
p355
sg15
I700
sg16
g12
sg17
g12
sg18
V/Library/Fonts/KozMinPr6N-Bold.otf
p356
sg20
g21
sbag1
(g8
g3
NtRp357
(dp358
g11
g32
sg13
S'Verdana'
p359
sg15
I700
sg16
g12
sg17
g12
sg18
V/Library/Fonts/Verdana Bold Italic.ttf
p360
sg20
g21
sbag1
(g8
g3
NtRp361
(dp362
g11
g12
sg13
S'Estrangelo Quenneshrin'
p363
sg15
I400
sg16
g12
sg17
g12
sg18
V/usr/X11/lib/X11/fonts/OTF/SyrCOMQenNeshrin.otf
p364
sg20
g21
sbag1
(g8
g3
NtRp365
(dp366
g11
g12
sg13
S'Serto Malankara'
p367
sg15
I400
sg16
g12
sg17
g12
sg18
V/usr/X11/lib/X11/fonts/OTF/SyrCOMMalankara.otf
p368
sg20
g21
sbag1
(g8
g3
NtRp369
(dp370
g11
g32
sg13
S'Myriad Pro'
p371
sg15
I400
sg16
g12
sg17
g12
sg18
V/Library/Fonts/MyriadPro-It.otf
p372
sg20
g21
sbag1
(g8
g3
NtRp373
(dp374
g11
g32
sg13
S'Sharp Sans No1 Extrabold Italic'
p375
sg15
I700
sg16
g12
sg17
g12
sg18
V/Library/Fonts/Sharp Sans No1 - Extrabold Italic.otf
p376
sg20
g21
sbag1
(g8
g3
NtRp377
(dp378
g11
g12
sg13
S'Kokonor'
p379
sg15
I400
sg16
g12
sg17
g12
sg18
V/Library/Fonts/Kokonor.ttf
p380
sg20
g21
sbag1
(g8
g3
NtRp381
(dp382
g11
g12
sg13
S'Goha-Tibeb Zemen'
p383
sg15
I400
sg16
g12
sg17
g12
sg18
V/usr/X11/lib/X11/fonts/OTF/GohaTibebZemen.otf
p384
sg20
g21
sbag1
(g8
g3
NtRp385
(dp386
g11
g32
sg13
S'Adobe Devanagari'
p387
sg15
I700
sg16
g12
sg17
g12
sg18
V/Library/Fonts/AdobeDevanagari-BoldItalic.otf
p388
sg20
g21
sbag1
(g8
g3
NtRp389
(dp390
g11
g12
sg13
S'Apple Braille'
p391
sg15
I400
sg16
g12
sg17
g12
sg18
V/System/Library/Fonts/Apple Braille.ttf
p392
sg20
g21
sbag1
(g8
g3
NtRp393
(dp394
g11
g12
sg13
S'System Font'
p395
sg15
I400
sg16
g12
sg17
g12
sg18
V/System/Library/Fonts/SFNSDisplay-LightItalic.otf
p396
sg20
g21
sbag1
(g8
g3
NtRp397
(dp398
g11
g12
sg13
S'Source Sans Pro'
p399
sg15
I900
sg16
g12
sg17
g12
sg18
V/Library/Fonts/SourceSansPro-Black.otf
p400
sg20
g21
sbag1
(g8
g3
NtRp401
(dp402
g11
g32
sg13
S'STIXNonUnicode'
p403
sg15
I400
sg16
g12
sg17
g12
sg18
V/Library/Fonts/STIXNonUniIta.otf
p404
sg20
g21
sbag1
(g8
g3
NtRp405
(dp406
g11
g12
sg13
S'MS Mincho'
p407
sg15
I400
sg16
g12
sg17
g12
sg18
V/Library/Fonts/Microsoft/MS Mincho.ttf
p408
sg20
g21
sbag1
(g8
g3
NtRp409
(dp410
g11
g12
sg13
S'Tekton Pro'
p411
sg15
I700
sg16
g12
sg17
g12
sg18
V/Library/Fonts/TektonPro-BoldExt.otf
p412
sg20
g21
sbag1
(g8
g3
NtRp413
(dp414
g11
g32
sg13
S'Chaparral Pro'
p415
sg15
I400
sg16
g12
sg17
g12
sg18
V/Library/Fonts/ChaparralPro-Italic.otf
p416
sg20
g21
sbag1
(g8
g3
NtRp417
(dp418
g11
g12
sg13
S'Comic Sans MS'
p419
sg15
I700
sg16
g12
sg17
g12
sg18
V/Library/Fonts/Comic Sans MS Bold.ttf
p420
sg20
g21
sbag1
(g8
g3
NtRp421
(dp422
g11
g32
sg13
S'Adobe Garamond Pro'
p423
sg15
I700
sg16
g12
sg17
g12
sg18
V/Library/Fonts/AGaramondPro-BoldItalic.otf
p424
sg20
g21
sbag1
(g8
g3
NtRp425
(dp426
g11
g12
sg13
S'STIXNonUnicode'
p427
sg15
I700
sg16
g12
sg17
g12
sg18
V/Library/Fonts/STIXNonUniBol.otf
p428
sg20
g21
sbag1
(g8
g3
NtRp429
(dp430
g11
g12
sg13
S'Webdings'
p431
sg15
I400
sg16
g12
sg17
g12
sg18
V/Library/Fonts/Webdings.ttf
p432
sg20
g21
sbag1
(g8
g3
NtRp433
(dp434
g11
g12
sg13
S'Apple Braille'
p435
sg15
I400
sg16
g12
sg17
g12
sg18
V/System/Library/Fonts/Apple Braille Pinpoint 6 Dot.ttf
p436
sg20
g21
sbag1
(g8
g3
NtRp437
(dp438
g11
g12
sg13
S'Kozuka Mincho Pr6N'
p439
sg15
I700
sg16
g12
sg17
g12
sg18
V/Library/Fonts/KozMinPr6N-Heavy.otf
p440
sg20
g21
sbag1
(g8
g3
NtRp441
(dp442
g11
g32
sg13
S'Meiryo'
p443
sg15
I700
sg16
g12
sg17
g12
sg18
V/Library/Fonts/Microsoft/Meiryo Bold Italic.ttf
p444
sg20
g21
sbag1
(g8
g3
NtRp445
(dp446
g11
g12
sg13
S'System Font'
p447
sg15
I400
sg16
g12
sg17
g12
sg18
V/System/Library/Fonts/SFNSDisplay-UltralightItalic.otf
p448
sg20
g21
sbag1
(g8
g3
NtRp449
(dp450
g11
g12
sg13
S'MingLiU_HKSCS-ExtB'
p451
sg15
I400
sg16
g12
sg17
g12
sg18
V/Library/Fonts/Microsoft/MingLiU_HKSCS-ExtB.ttf
p452
sg20
g21
sbag1
(g8
g3
NtRp453
(dp454
g11
g12
sg13
S'Kozuka Gothic Pro'
p455
sg15
I700
sg16
g12
sg17
g12
sg18
V/Library/Fonts/KozGoPro-Heavy.otf
p456
sg20
g21
sbag1
(g8
g3
NtRp457
(dp458
g11
g32
sg13
S'Franklin Gothic Book'
p459
sg15
I400
sg16
g12
sg17
g12
sg18
V/Library/Fonts/Microsoft/Franklin Gothic Book Italic.ttf
p460
sg20
g21
sbag1
(g8
g3
NtRp461
(dp462
g11
g32
sg13
S'Palatino Linotype'
p463
sg15
I700
sg16
g12
sg17
g12
sg18
V/Library/Fonts/Microsoft/Palatino Linotype Bold Italic.ttf
p464
sg20
g21
sbag1
(g8
g3
NtRp465
(dp466
g11
g12
sg13
S'STIXIntegralsUpSm'
p467
sg15
I400
sg16
g12
sg17
g12
sg18
V/Library/Fonts/STIXIntUpSmReg.otf
p468
sg20
g21
sbag1
(g8
g3
NtRp469
(dp470
g11
g12
sg13
S'Meiryo'
p471
sg15
I400
sg16
g12
sg17
g12
sg18
V/Library/Fonts/Microsoft/Meiryo.ttf
p472
sg20
g21
sbag1
(g8
g3
NtRp473
(dp474
g11
g32
sg13
S'Minion Pro'
p475
sg15
I500
sg16
g12
sg17
g12
sg18
V/Library/Fonts/MinionPro-MediumIt.otf
p476
sg20
g21
sbag1
(g8
g3
NtRp477
(dp478
g11
g12
sg13
S'Kozuka Mincho Pro'
p479
sg15
I400
sg16
g12
sg17
g12
sg18
V/Library/Fonts/KozMinPro-Regular.otf
p480
sg20
g21
sbag1
(g8
g3
NtRp481
(dp482
g11
g32
sg13
S'Courier New'
p483
sg15
I400
sg16
g12
sg17
g12
sg18
V/Library/Fonts/Courier New Italic.ttf
p484
sg20
g21
sbag1
(g8
g3
NtRp485
(dp486
g11
g12
sg13
S'Arial Black'
p487
sg15
I900
sg16
g12
sg17
g12
sg18
V/Library/Fonts/Arial Black.ttf
p488
sg20
g21
sbag1
(g8
g3
NtRp489
(dp490
g11
g32
sg13
S'Myriad Pro'
p491
sg15
I700
sg16
g12
sg17
g12
sg18
V/Library/Fonts/MyriadPro-SemiboldIt.otf
p492
sg20
g21
sbag1
(g8
g3
NtRp493
(dp494
g11
g12
sg13
S'Luxi Serif'
p495
sg15
I400
sg16
g12
sg17
g12
sg18
V/usr/X11/lib/X11/fonts/TTF/luxirr.ttf
p496
sg20
g21
sbag1
(g8
g3
NtRp497
(dp498
g11
g12
sg13
S'.SF Compact Display'
p499
sg15
I400
sg16
g12
sg17
g12
sg18
V/System/Library/Fonts/SFCompactDisplay-Thin.otf
p500
sg20
g21
sbag1
(g8
g3
NtRp501
(dp502
g11
g32
sg13
S'STIXGeneral'
p503
sg15
I400
sg16
g12
sg17
g12
sg18
V/Library/Fonts/STIXGeneralItalic.otf
p504
sg20
g21
sbag1
(g8
g3
NtRp505
(dp506
g11
g32
sg13
S'Myriad Pro'
p507
sg15
I700
sg16
g167
sg17
g12
sg18
V/Library/Fonts/MyriadPro-BoldCondIt.otf
p508
sg20
g21
sbag1
(g8
g3
NtRp509
(dp510
g11
g12
sg13
S'STIXSizeFourSym'
p511
sg15
I400
sg16
g12
sg17
g12
sg18
V/Library/Fonts/STIXSizFourSymReg.otf
p512
sg20
g21
sbag1
(g8
g3
NtRp513
(dp514
g11
g12
sg13
S'Adobe Kaiti Std'
p515
sg15
I400
sg16
g12
sg17
g12
sg18
V/Library/Fonts/AdobeKaitiStd-Regular.otf
p516
sg20
g21
sbag1
(g8
g3
NtRp517
(dp518
g11
g12
sg13
S'Microsoft Yi Baiti'
p519
sg15
I400
sg16
g12
sg17
g12
sg18
V/Library/Fonts/Microsoft/msyi.ttf
p520
sg20
g21
sbag1
(g8
g3
NtRp521
(dp522
g11
g12
sg13
S'Nueva Std'
p523
sg15
I400
sg16
g167
sg17
g12
sg18
V/Library/Fonts/NuevaStd-Cond.otf
p524
sg20
g21
sbag1
(g8
g3
NtRp525
(dp526
g11
g32
sg13
S'Times New Roman'
p527
sg15
I700
sg16
g12
sg17
g12
sg18
V/Library/Fonts/Microsoft/Times New Roman Bold Italic.ttf
p528
sg20
g21
sbag1
(g8
g3
NtRp529
(dp530
g11
g12
sg13
S'Wingdings 3'
p531
sg15
I400
sg16
g12
sg17
g12
sg18
V/Library/Fonts/Microsoft/Wingdings 3.ttf
p532
sg20
g21
sbag1
(g8
g3
NtRp533
(dp534
g11
g12
sg13
S'Consolas'
p535
sg15
I400
sg16
g12
sg17
g12
sg18
V/Library/Fonts/Microsoft/Consolas.ttf
p536
sg20
g21
sbag1
(g8
g3
NtRp537
(dp538
g11
g32
sg13
S'Perpetua'
p539
sg15
I400
sg16
g12
sg17
g12
sg18
V/Library/Fonts/Microsoft/Perpetua Italic.ttf
p540
sg20
g21
sbag1
(g8
g3
NtRp541
(dp542
g11
g12
sg13
S'Source Code Pro'
p543
sg15
I700
sg16
g12
sg17
g12
sg18
V/Library/Fonts/SourceCodePro-Semibold.ttf
p544
sg20
g21
sbag1
(g8
g3
NtRp545
(dp546
g11
g12
sg13
S'Comic Sans MS'
p547
sg15
I400
sg16
g12
sg17
g12
sg18
V/Library/Fonts/Comic Sans MS.ttf
p548
sg20
g21
sbag1
(g8
g3
NtRp549
(dp550
g11
g12
sg13
S'Kozuka Mincho Pr6N'
p551
sg15
I400
sg16
g12
sg17
g12
sg18
V/Library/Fonts/KozMinPr6N-Light.otf
p552
sg20
g21
sbag1
(g8
g3
NtRp553
(dp554
g11
g12
sg13
S'PMingLiU'
p555
sg15
I400
sg16
g12
sg17
g12
sg18
V/Library/Fonts/Microsoft/PMingLiU.ttf
p556
sg20
g21
sbag1
(g8
g3
NtRp557
(dp558
g11
g12
sg13
S'Arial'
p559
sg15
I400
sg16
g12
sg17
g12
sg18
V/Library/Fonts/Microsoft/Arial.ttf
p560
sg20
g21
sbag1
(g8
g3
NtRp561
(dp562
g11
g12
sg13
S'STIXSizeFourSym'
p563
sg15
I700
sg16
g12
sg17
g12
sg18
V/Library/Fonts/STIXSizFourSymBol.otf
p564
sg20
g21
sbag1
(g8
g3
NtRp565
(dp566
g11
g12
sg13
S'Kozuka Gothic Pr6N'
p567
sg15
I400
sg16
g12
sg17
g12
sg18
V/Library/Fonts/KozGoPr6N-Medium.otf
p568
sg20
g21
sbag1
(g8
g3
NtRp569
(dp570
g11
g12
sg13
S'Marlett'
p571
sg15
I400
sg16
g12
sg17
g12
sg18
V/Library/Fonts/Microsoft/Marlett.ttf
p572
sg20
g21
sbag1
(g8
g3
NtRp573
(dp574
g11
g12
sg13
S'Calibri'
p575
sg15
I700
sg16
g12
sg17
g12
sg18
V/Library/Fonts/Microsoft/Calibri Bold.ttf
p576
sg20
g21
sbag1
(g8
g3
NtRp577
(dp578
g11
g12
sg13
S'Minion Pro'
p579
sg15
I500
sg16
g12
sg17
g12
sg18
V/Library/Fonts/MinionPro-Medium.otf
p580
sg20
g21
sbag1
(g8
g3
NtRp581
(dp582
g11
g12
sg13
S'Wingdings'
p583
sg15
I400
sg16
g12
sg17
g12
sg18
V/Library/Fonts/Wingdings.ttf
p584
sg20
g21
sbag1
(g8
g3
NtRp585
(dp586
g11
g12
sg13
S'Impact'
p587
sg15
I400
sg16
g12
sg17
g12
sg18
V/Library/Fonts/Impact.ttf
p588
sg20
g21
sbag1
(g8
g3
NtRp589
(dp590
g11
g12
sg13
S'Tahoma'
p591
sg15
I700
sg16
g12
sg17
g12
sg18
V/Library/Fonts/Tahoma Bold.ttf
p592
sg20
g21
sbag1
(g8
g3
NtRp593
(dp594
g11
g32
sg13
S'Georgia'
p595
sg15
I700
sg16
g12
sg17
g12
sg18
V/Library/Fonts/Georgia Bold Italic.ttf
p596
sg20
g21
sbag1
(g8
g3
NtRp597
(dp598
g11
g12
sg13
S'Tekton Pro'
p599
sg15
I700
sg16
g167
sg17
g12
sg18
V/Library/Fonts/TektonPro-BoldCond.otf
p600
sg20
g21
sbag1
(g8
g3
NtRp601
(dp602
g11
g12
sg13
S'.SF Compact Rounded'
p603
sg15
I400
sg16
g12
sg17
g12
sg18
V/System/Library/Fonts/SFCompactRounded-Regular.otf
p604
sg20
g21
sbag1
(g8
g3
NtRp605
(dp606
g11
g32
sg13
S'Myriad Arabic'
p607
sg15
I700
sg16
g12
sg17
g12
sg18
V/Library/Fonts/MyriadArabic-BoldIt.otf
p608
sg20
g21
sbag1
(g8
g3
NtRp609
(dp610
g11
g65
sg13
S'Luxi Mono'
p611
sg15
I700
sg16
g12
sg17
g12
sg18
V/usr/X11/lib/X11/fonts/TTF/luximbi.ttf
p612
sg20
g21
sbag1
(g8
g3
NtRp613
(dp614
g11
g12
sg13
S'Hoefler Text'
p615
sg15
I400
sg16
g12
sg17
g12
sg18
V/Library/Fonts/Hoefler Text Ornaments.ttf
p616
sg20
g21
sbag1
(g8
g3
NtRp617
(dp618
g11
g12
sg13
S'.SF Compact Rounded'
p619
sg15
I400
sg16
g12
sg17
g12
sg18
V/System/Library/Fonts/SFCompactRounded-Heavy.otf
p620
sg20
g21
sbag1
(g8
g3
NtRp621
(dp622
g11
g32
sg13
S'Chaparral Pro'
p623
sg15
I200
sg16
g12
sg17
g12
sg18
V/Library/Fonts/ChaparralPro-LightIt.otf
p624
sg20
g21
sbag1
(g8
g3
NtRp625
(dp626
g11
g32
sg13
S'Adobe Arabic'
p627
sg15
I400
sg16
g12
sg17
g12
sg18
V/Library/Fonts/AdobeArabic-Italic.otf
p628
sg20
g21
sbag1
(g8
g3
NtRp629
(dp630
g11
g32
sg13
S'Source Sans Pro'
p631
sg15
I700
sg16
g12
sg17
g12
sg18
V/Library/Fonts/SourceSansPro-BoldIt.otf
p632
sg20
g21
sbag1
(g8
g3
NtRp633
(dp634
g11
g12
sg13
S'Rosewood Std'
p635
sg15
I400
sg16
g12
sg17
g12
sg18
V/Library/Fonts/RosewoodStd-Regular.otf
p636
sg20
g21
sbag1
(g8
g3
NtRp637
(dp638
g11
g12
sg13
S'.SF Compact Rounded'
p639
sg15
I400
sg16
g12
sg17
g12
sg18
V/System/Library/Fonts/SFCompactRounded-Medium.otf
p640
sg20
g21
sbag1
(g8
g3
NtRp641
(dp642
g11
g12
sg13
S'Adobe Arabic'
p643
sg15
I700
sg16
g12
sg17
g12
sg18
V/Library/Fonts/AdobeArabic-Bold.otf
p644
sg20
g21
sbag1
(g8
g3
NtRp645
(dp646
g11
g12
sg13
S'Gill Sans MT'
p647
sg15
I400
sg16
g12
sg17
g12
sg18
V/Library/Fonts/Microsoft/Gill Sans MT.ttf
p648
sg20
g21
sbag1
(g8
g3
NtRp649
(dp650
g11
g12
sg13
S'Source Sans Pro'
p651
sg15
I700
sg16
g12
sg17
g12
sg18
V/Library/Fonts/SourceSansPro-Bold.otf
p652
sg20
g21
sbag1
(g8
g3
NtRp653
(dp654
g11
g12
sg13
S'Myriad Arabic'
p655
sg15
I400
sg16
g12
sg17
g12
sg18
V/Library/Fonts/MyriadArabic-Regular.otf
p656
sg20
g21
sbag1
(g8
g3
NtRp657
(dp658
g11
g12
sg13
S'Constantia'
p659
sg15
I400
sg16
g12
sg17
g12
sg18
V/Library/Fonts/Microsoft/Constantia.ttf
p660
sg20
g21
sbag1
(g8
g3
NtRp661
(dp662
g11
g32
sg13
S'Verdana'
p663
sg15
I400
sg16
g12
sg17
g12
sg18
V/Library/Fonts/Microsoft/Verdana Italic.ttf
p664
sg20
g21
sbag1
(g8
g3
NtRp665
(dp666
g11
g12
sg13
S'.SF NS Display Condensed'
p667
sg15
I400
sg16
g12
sg17
g12
sg18
V/System/Library/Fonts/SFNSDisplayCondensed-Bold.otf
p668
sg20
g21
sbag1
(g8
g3
NtRp669
(dp670
g11
g32
sg13
S'Letter Gothic Std'
p671
sg15
I700
sg16
g12
sg17
g12
sg18
V/Library/Fonts/LetterGothicStd-BoldSlanted.otf
p672
sg20
g21
sbag1
(g8
g3
NtRp673
(dp674
g11
g12
sg13
S'Luxi Mono'
p675
sg15
I700
sg16
g12
sg17
g12
sg18
V/usr/X11/lib/X11/fonts/TTF/luximb.ttf
p676
sg20
g21
sbag1
(g8
g3
NtRp677
(dp678
g11
g32
sg13
S'Nueva Std'
p679
sg15
I400
sg16
g167
sg17
g12
sg18
V/Library/Fonts/NuevaStd-CondItalic.otf
p680
sg20
g21
sbag1
(g8
g3
NtRp681
(dp682
g11
g12
sg13
S'.SF Compact Text'
p683
sg15
I400
sg16
g12
sg17
g12
sg18
V/System/Library/Fonts/SFCompactText-Medium.otf
p684
sg20
g21
sbag1
(g8
g3
NtRp685
(dp686
g11
g32
sg13
S'Arial'
p687
sg15
I400
sg16
g12
sg17
g12
sg18
V/Library/Fonts/Microsoft/Arial Italic.ttf
p688
sg20
g21
sbag1
(g8
g3
NtRp689
(dp690
g11
g65
sg13
S'Luxi Sans'
p691
sg15
I400
sg16
g12
sg17
g12
sg18
V/usr/X11/lib/X11/fonts/TTF/luxisri.ttf
p692
sg20
g21
sbag1
(g8
g3
NtRp693
(dp694
g11
g12
sg13
S'Zapf Dingbats'
p695
sg15
I400
sg16
g12
sg17
g12
sg18
V/System/Library/Fonts/ZapfDingbats.ttf
p696
sg20
g21
sbag1
(g8
g3
NtRp697
(dp698
g11
g12
sg13
S'.SF Compact Rounded'
p699
sg15
I400
sg16
g12
sg17
g12
sg18
V/System/Library/Fonts/SFCompactRounded-Semibold.otf
p700
sg20
g21
sbag1
(g8
g3
NtRp701
(dp702
g11
g32
sg13
S'Calibri'
p703
sg15
I700
sg16
g12
sg17
g12
sg18
V/Library/Fonts/Microsoft/Calibri Bold Italic.ttf
p704
sg20
g21
sbag1
(g8
g3
NtRp705
(dp706
g11
g32
sg13
S'Corbel'
p707
sg15
I700
sg16
g12
sg17
g12
sg18
V/Library/Fonts/Microsoft/Corbel Bold Italic.ttf
p708
sg20
g21
sbag1
(g8
g3
NtRp709
(dp710
g11
g12
sg13
S'System Font'
p711
sg15
I400
sg16
g12
sg17
g12
sg18
V/System/Library/Fonts/SFNSTextItalic.ttf
p712
sg20
g21
sbag1
(g8
g3
NtRp713
(dp714
g11
g12
sg13
S'Adobe Garamond Pro'
p715
sg15
I700
sg16
g12
sg17
g12
sg18
V/Library/Fonts/AGaramondPro-Bold.otf
p716
sg20
g21
sbag1
(g8
g3
NtRp717
(dp718
g11
g12
sg13
S'Stencil Std'
p719
sg15
I700
sg16
g12
sg17
g12
sg18
V/Library/Fonts/StencilStd.otf
p720
sg20
g21
sbag1
(g8
g3
NtRp721
(dp722
g11
g12
sg13
S'Luminari'
p723
sg15
I400
sg16
g12
sg17
g12
sg18
V/Library/Fonts/Luminari.ttf
p724
sg20
g21
sbag1
(g8
g3
NtRp725
(dp726
g11
g12
sg13
S'Myriad Pro'
p727
sg15
I400
sg16
g12
sg17
g12
sg18
V/Library/Fonts/MyriadPro-Regular.otf
p728
sg20
g21
sbag1
(g8
g3
NtRp729
(dp730
g11
g12
sg13
S'Myriad Pro'
p731
sg15
I400
sg16
g167
sg17
g12
sg18
V/Library/Fonts/MyriadPro-Cond.otf
p732
sg20
g21
sbag1
(g8
g3
NtRp733
(dp734
g11
g32
sg13
S'Trebuchet MS'
p735
sg15
I700
sg16
g12
sg17
g12
sg18
V/Library/Fonts/Trebuchet MS Bold Italic.ttf
p736
sg20
g21
sbag1
(g8
g3
NtRp737
(dp738
g11
g12
sg13
S'STIXIntegralsSm'
p739
sg15
I700
sg16
g12
sg17
g12
sg18
V/Library/Fonts/STIXIntSmBol.otf
p740
sg20
g21
sbag1
(g8
g3
NtRp741
(dp742
g11
g12
sg13
S'Adobe Ming Std'
p743
sg15
I400
sg16
g12
sg17
g12
sg18
V/Library/Fonts/AdobeMingStd-Light.otf
p744
sg20
g21
sbag1
(g8
g3
NtRp745
(dp746
g11
g32
sg13
S'Sharp Sans No1 Bold Italic'
p747
sg15
I700
sg16
g12
sg17
g12
sg18
V/Library/Fonts/Sharp Sans No1 - Bold Italic.otf
p748
sg20
g21
sbag1
(g8
g3
NtRp749
(dp750
g11
g12
sg13
S'Bradley Hand'
p751
sg15
I700
sg16
g12
sg17
g12
sg18
V/Library/Fonts/Bradley Hand Bold.ttf
p752
sg20
g21
sbag1
(g8
g3
NtRp753
(dp754
g11
g12
sg13
S'Cooper Std'
p755
sg15
I900
sg16
g12
sg17
g12
sg18
V/Library/Fonts/CooperBlackStd.otf
p756
sg20
g21
sbag1
(g8
g3
NtRp757
(dp758
g11
g12
sg13
S'Kozuka Gothic Pro'
p759
sg15
I400
sg16
g12
sg17
g12
sg18
V/Library/Fonts/KozGoPro-ExtraLight.otf
p760
sg20
g21
sbag1
(g8
g3
NtRp761
(dp762
g11
g32
sg13
S'Myriad Hebrew'
p763
sg15
I700
sg16
g12
sg17
g12
sg18
V/Library/Fonts/MyriadHebrew-BoldIt.otf
p764
sg20
g21
sbag1
(g8
g3
NtRp765
(dp766
g11
g32
sg13
S'Tw Cen MT'
p767
sg15
I400
sg16
g12
sg17
g12
sg18
V/Library/Fonts/Microsoft/Tw Cen MT Italic.ttf
p768
sg20
g21
sbag1
(g8
g3
NtRp769
(dp770
g11
g12
sg13
S'Bookshelf Symbol 7'
p771
sg15
I400
sg16
g12
sg17
g12
sg18
V/Library/Fonts/Microsoft/Bookshelf Symbol 7.ttf
p772
sg20
g21
sbag1
(g8
g3
NtRp773
(dp774
g11
g32
sg13
S'Chaparral Pro'
p775
sg15
I700
sg16
g12
sg17
g12
sg18
V/Library/Fonts/ChaparralPro-BoldIt.otf
p776
sg20
g21
sbag1
(g8
g3
NtRp777
(dp778
g11
g12
sg13
S'Consolas'
p779
sg15
I700
sg16
g12
sg17
g12
sg18
V/Library/Fonts/Microsoft/Consolas Bold.ttf
p780
sg20
g21
sbag1
(g8
g3
NtRp781
(dp782
g11
g12
sg13
S'Sharp Sans No1 Book'
p783
sg15
I400
sg16
g12
sg17
g12
sg18
V/Library/Fonts/Sharp Sans No1 - Book.otf
p784
sg20
g21
sbag1
(g8
g3
NtRp785
(dp786
g11
g12
sg13
S'Adobe Song Std'
p787
sg15
I400
sg16
g12
sg17
g12
sg18
V/Library/Fonts/AdobeSongStd-Light.otf
p788
sg20
g21
sbag1
(g8
g3
NtRp789
(dp790
g11
g12
sg13
S'.SF Compact Text'
p791
sg15
I400
sg16
g12
sg17
g12
sg18
V/System/Library/Fonts/SFCompactText-Regular.otf
p792
sg20
g21
sbag1
(g8
g3
NtRp793
(dp794
g11
g12
sg13
S'.SF Compact Text'
p795
sg15
I400
sg16
g12
sg17
g12
sg18
V/System/Library/Fonts/SFCompactText-Semibold.otf
p796
sg20
g21
sbag1
(g8
g3
NtRp797
(dp798
g11
g12
sg13
S'.LastResort'
p799
sg15
I400
sg16
g12
sg17
g12
sg18
V/System/Library/Fonts/LastResort.otf
p800
sg20
g21
sbag1
(g8
g3
NtRp801
(dp802
g11
g32
sg13
S'Adobe Hebrew'
p803
sg15
I700
sg16
g12
sg17
g12
sg18
V/Library/Fonts/AdobeHebrew-BoldItalic.otf
p804
sg20
g21
sbag1
(g8
g3
NtRp805
(dp806
g11
g32
sg13
S'Orator Std'
p807
sg15
I400
sg16
g12
sg17
g12
sg18
V/Library/Fonts/OratorStd-Slanted.otf
p808
sg20
g21
sbag1
(g8
g3
NtRp809
(dp810
g11
g12
sg13
S'Farisi'
p811
sg15
I400
sg16
g12
sg17
g12
sg18
V/Library/Fonts/Farisi.ttf
p812
sg20
g21
sbag1
(g8
g3
NtRp813
(dp814
g11
g12
sg13
S'System Font'
p815
sg15
I400
sg16
g12
sg17
g12
sg18
V/System/Library/Fonts/SFNSText.ttf
p816
sg20
g21
sbag1
(g8
g3
NtRp817
(dp818
g11
g12
sg13
S'Luxi Sans'
p819
sg15
I700
sg16
g12
sg17
g12
sg18
V/usr/X11/lib/X11/fonts/TTF/luxisb.ttf
p820
sg20
g21
sbag1
(g8
g3
NtRp821
(dp822
g11
g12
sg13
S'.SF Compact Display'
p823
sg15
I400
sg16
g12
sg17
g12
sg18
V/System/Library/Fonts/SFCompactDisplay-Medium.otf
p824
sg20
g21
sbag1
(g8
g3
NtRp825
(dp826
g11
g12
sg13
S'STIXNonUnicode'
p827
sg15
I400
sg16
g12
sg17
g12
sg18
V/Library/Fonts/STIXNonUni.otf
p828
sg20
g21
sbag1
(g8
g3
NtRp829
(dp830
g11
g12
sg13
S'Bodoni 72 Smallcaps'
p831
sg15
I400
sg16
g12
sg17
g12
sg18
V/Library/Fonts/Bodoni 72 Smallcaps Book.ttf
p832
sg20
g21
sbag1
(g8
g3
NtRp833
(dp834
g11
g12
sg13
S'Sharp Sans No1 Ultrathin'
p835
sg15
I400
sg16
g12
sg17
g12
sg18
V/Library/Fonts/Sharp Sans No1 - Ultrathin.otf
p836
sg20
g21
sbag1
(g8
g3
NtRp837
(dp838
g11
g32
sg13
S'Adobe Caslon Pro'
p839
sg15
I400
sg16
g12
sg17
g12
sg18
V/Library/Fonts/ACaslonPro-Italic.otf
p840
sg20
g21
sbag1
(g8
g3
NtRp841
(dp842
g11
g32
sg13
S'STIXNonUnicode'
p843
sg15
I700
sg16
g12
sg17
g12
sg18
V/Library/Fonts/STIXNonUniBolIta.otf
p844
sg20
g21
sbag1
(g8
g3
NtRp845
(dp846
g11
g12
sg13
S'Adobe Devanagari'
p847
sg15
I700
sg16
g12
sg17
g12
sg18
V/Library/Fonts/AdobeDevanagari-Bold.otf
p848
sg20
g21
sbag1
(g8
g3
NtRp849
(dp850
g11
g12
sg13
S'Brush Script Std'
p851
sg15
I500
sg16
g12
sg17
g12
sg18
V/Library/Fonts/BrushScriptStd.otf
p852
sg20
g21
sbag1
(g8
g3
NtRp853
(dp854
g11
g12
sg13
S'Trajan Pro 3'
p855
sg15
I400
sg16
g12
sg17
g12
sg18
V/Library/Fonts/TrajanPro3-Regular.otf
p856
sg20
g21
sbag1
(g8
g3
NtRp857
(dp858
g11
g12
sg13
S'Trebuchet MS'
p859
sg15
I700
sg16
g12
sg17
g12
sg18
V/Library/Fonts/Trebuchet MS Bold.ttf
p860
sg20
g21
sbag1
(g8
g3
NtRp861
(dp862
g11
g12
sg13
S'SimHei'
p863
sg15
I400
sg16
g12
sg17
g12
sg18
V/Library/Fonts/Microsoft/SimHei.ttf
p864
sg20
g21
sbag1
(g8
g3
NtRp865
(dp866
g11
g12
sg13
S'Estrangelo Edessa'
p867
sg15
I400
sg16
g12
sg17
g12
sg18
V/usr/X11/lib/X11/fonts/OTF/SyrCOMEdessa.otf
p868
sg20
g21
sbag1
(g8
g3
NtRp869
(dp870
g11
g32
sg13
S'Constantia'
p871
sg15
I700
sg16
g12
sg17
g12
sg18
V/Library/Fonts/Microsoft/Constantia Bold Italic.ttf
p872
sg20
g21
sbag1
(g8
g3
NtRp873
(dp874
g11
g32
sg13
S'Sharp Sans No1 Book Italic'
p875
sg15
I400
sg16
g12
sg17
g12
sg18
V/Library/Fonts/Sharp Sans No1 - Book Italic.otf
p876
sg20
g21
sbag1
(g8
g3
NtRp877
(dp878
g11
g12
sg13
S'STIXIntegralsSm'
p879
sg15
I400
sg16
g12
sg17
g12
sg18
V/Library/Fonts/STIXIntSmReg.otf
p880
sg20
g21
sbag1
(g8
g3
NtRp881
(dp882
g11
g12
sg13
S'Myriad Pro'
p883
sg15
I700
sg16
g167
sg17
g12
sg18
V/Library/Fonts/MyriadPro-BoldCond.otf
p884
sg20
g21
sbag1
(g8
g3
NtRp885
(dp886
g11
g12
sg13
S'Georgia'
p887
sg15
I700
sg16
g12
sg17
g12
sg18
V/Library/Fonts/Georgia Bold.ttf
p888
sg20
g21
sbag1
(g8
g3
NtRp889
(dp890
g11
g12
sg13
S'Chalkduster'
p891
sg15
I400
sg16
g12
sg17
g12
sg18
V/Library/Fonts/Chalkduster.ttf
p892
sg20
g21
sbag1
(g8
g3
NtRp893
(dp894
g11
g12
sg13
S'Estrangelo Antioch'
p895
sg15
I400
sg16
g12
sg17
g12
sg18
V/usr/X11/lib/X11/fonts/OTF/SyrCOMAntioch.otf
p896
sg20
g21
sbag1
(g8
g3
NtRp897
(dp898
g11
g32
sg13
S'Source Sans Pro'
p899
sg15
I200
sg16
g12
sg17
g12
sg18
V/Library/Fonts/SourceSansPro-ExtraLightIt.otf
p900
sg20
g21
sbag1
(g8
g3
NtRp901
(dp902
g11
g12
sg13
S'Serto Batnan'
p903
sg15
I700
sg16
g12
sg17
g12
sg18
V/usr/X11/lib/X11/fonts/OTF/SyrCOMBatnanBold.otf
p904
sg20
g21
sbag1
(g8
g3
NtRp905
(dp906
g11
g32
sg13
S'Minion Pro'
p907
sg15
I700
sg16
g12
sg17
g12
sg18
V/Library/Fonts/MinionPro-BoldIt.otf
p908
sg20
g21
sbag1
(g8
g3
NtRp909
(dp910
g11
g12
sg13
S'Serto Jerusalem'
p911
sg15
I700
sg16
g12
sg17
g12
sg18
V/usr/X11/lib/X11/fonts/OTF/SyrCOMJerusalemBold.otf
p912
sg20
g21
sbag1
(g8
g3
NtRp913
(dp914
g11
g12
sg13
S'Adobe Caslon Pro'
p915
sg15
I400
sg16
g12
sg17
g12
sg18
V/Library/Fonts/ACaslonPro-Regular.otf
p916
sg20
g21
sbag1
(g8
g3
NtRp917
(dp918
g11
g12
sg13
S'STIXIntegralsUp'
p919
sg15
I400
sg16
g12
sg17
g12
sg18
V/Library/Fonts/STIXIntUpReg.otf
p920
sg20
g21
sbag1
(g8
g3
NtRp921
(dp922
g11
g12
sg13
S'Mesquite Std'
p923
sg15
I500
sg16
g12
sg17
g12
sg18
V/Library/Fonts/MesquiteStd.otf
p924
sg20
g21
sbag1
(g8
g3
NtRp925
(dp926
g11
g12
sg13
S'Sharp Sans No1 Hairline'
p927
sg15
I400
sg16
g12
sg17
g12
sg18
V/Library/Fonts/Sharp Sans No1 - Hairline.otf
p928
sg20
g21
sbag1
(g8
g3
NtRp929
(dp930
g11
g12
sg13
S'Big Caslon'
p931
sg15
I500
sg16
g12
sg17
g12
sg18
V/Library/Fonts/BigCaslon.ttf
p932
sg20
g21
sbag1
(g8
g3
NtRp933
(dp934
g11
g32
sg13
S'Adobe Hebrew'
p935
sg15
I400
sg16
g12
sg17
g12
sg18
V/Library/Fonts/AdobeHebrew-Italic.otf
p936
sg20
g21
sbag1
(g8
g3
NtRp937
(dp938
g11
g12
sg13
S'Ayuthaya'
p939
sg15
I400
sg16
g12
sg17
g12
sg18
V/Library/Fonts/Ayuthaya.ttf
p940
sg20
g21
sbag1
(g8
g3
NtRp941
(dp942
g11
g12
sg13
S'.SF Compact Rounded'
p943
sg15
I400
sg16
g12
sg17
g12
sg18
V/System/Library/Fonts/SFCompactRounded-Bold.otf
p944
sg20
g21
sbag1
(g8
g3
NtRp945
(dp946
g11
g12
sg13
S'Orator Std'
p947
sg15
I500
sg16
g12
sg17
g12
sg18
V/Library/Fonts/OratorStd.otf
p948
sg20
g21
sbag1
(g8
g3
NtRp949
(dp950
g11
g12
sg13
S'Blackoak Std'
p951
sg15
I900
sg16
g12
sg17
g12
sg18
V/Library/Fonts/BlackoakStd.otf
p952
sg20
g21
sbag1
(g8
g3
NtRp953
(dp954
g11
g12
sg13
S'Corbel'
p955
sg15
I700
sg16
g12
sg17
g12
sg18
V/Library/Fonts/Microsoft/Corbel Bold.ttf
p956
sg20
g21
sbag1
(g8
g3
NtRp957
(dp958
g11
g12
sg13
S'Minion Pro'
p959
sg15
I700
sg16
g12
sg17
g12
sg18
V/Library/Fonts/MinionPro-Bold.otf
p960
sg20
g21
sbag1
(g8
g3
NtRp961
(dp962
g11
g12
sg13
S'Wingdings 2'
p963
sg15
I400
sg16
g12
sg17
g12
sg18
V/Library/Fonts/Microsoft/Wingdings 2.ttf
p964
sg20
g21
sbag1
(g8
g3
NtRp965
(dp966
g11
g12
sg13
S'Andale Mono'
p967
sg15
I400
sg16
g12
sg17
g12
sg18
V/Library/Fonts/Andale Mono.ttf
p968
sg20
g21
sbag1
(g8
g3
NtRp969
(dp970
g11
g32
sg13
S'Consolas'
p971
sg15
I400
sg16
g12
sg17
g12
sg18
V/Library/Fonts/Microsoft/Consolas Italic.ttf
p972
sg20
g21
sbag1
(g8
g3
NtRp973
(dp974
g11
g12
sg13
S'Letter Gothic Std'
p975
sg15
I700
sg16
g12
sg17
g12
sg18
V/Library/Fonts/LetterGothicStd-Bold.otf
p976
sg20
g21
sbag1
(g8
g3
NtRp977
(dp978
g11
g12
sg13
S'Silom'
p979
sg15
I400
sg16
g12
sg17
g12
sg18
V/Library/Fonts/Silom.ttf
p980
sg20
g21
sbag1
(g8
g3
NtRp981
(dp982
g11
g12
sg13
S'.SF NS Text Condensed'
p983
sg15
I400
sg16
g12
sg17
g12
sg18
V/System/Library/Fonts/SFNSTextCondensed-Light.otf
p984
sg20
g21
sbag1
(g8
g3
NtRp985
(dp986
g11
g12
sg13
S'Luxi Mono'
p987
sg15
I400
sg16
g12
sg17
g12
sg18
V/usr/X11/lib/X11/fonts/TTF/luximr.ttf
p988
sg20
g21
sbag1
(g8
g3
NtRp989
(dp990
g11
g32
sg13
S'Calibri'
p991
sg15
I400
sg16
g12
sg17
g12
sg18
V/Library/Fonts/Microsoft/Calibri Italic.ttf
p992
sg20
g21
sbag1
(g8
g3
NtRp993
(dp994
g11
g12
sg13
S'Candara'
p995
sg15
I400
sg16
g12
sg17
g12
sg18
V/Library/Fonts/Microsoft/Candara.ttf
p996
sg20
g21
sbag1
(g8
g3
NtRp997
(dp998
g11
g12
sg13
S'MingLiU'
p999
sg15
I400
sg16
g12
sg17
g12
sg18
V/Library/Fonts/Microsoft/MingLiU.ttf
p1000
sg20
g21
sbag1
(g8
g3
NtRp1001
(dp1002
g11
g12
sg13
S'Gulim'
p1003
sg15
I400
sg16
g12
sg17
g12
sg18
V/Library/Fonts/Microsoft/Gulim.ttf
p1004
sg20
g21
sbag1
(g8
g3
NtRp1005
(dp1006
g11
g12
sg13
S'Lao Sangam MN'
p1007
sg15
I400
sg16
g12
sg17
g12
sg18
V/Library/Fonts/Lao Sangam MN.ttf
p1008
sg20
g21
sbag1
(g8
g3
NtRp1009
(dp1010
g11
g12
sg13
S'Estrangelo Nisibin Outline'
p1011
sg15
I400
sg16
g12
sg17
g12
sg18
V/usr/X11/lib/X11/fonts/OTF/SyrCOMNisibinOutline.otf
p1012
sg20
g21
sbag1
(g8
g3
NtRp1013
(dp1014
g11
g12
sg13
S'Bodoni Ornaments'
p1015
sg15
I400
sg16
g12
sg17
g12
sg18
V/Library/Fonts/Bodoni Ornaments.ttf
p1016
sg20
g21
sbag1
(g8
g3
NtRp1017
(dp1018
g11
g32
sg13
S'Cambria'
p1019
sg15
I700
sg16
g12
sg17
g12
sg18
V/Library/Fonts/Microsoft/Cambria Bold Italic.ttf
p1020
sg20
g21
sbag1
(g8
g3
NtRp1021
(dp1022
g11
g12
sg13
S'Gabriola'
p1023
sg15
I400
sg16
g12
sg17
g12
sg18
V/Library/Fonts/Microsoft/Gabriola.ttf
p1024
sg20
g21
sbag1
(g8
g3
NtRp1025
(dp1026
g11
g32
sg13
S'Adobe Caslon Pro'
p1027
sg15
I700
sg16
g12
sg17
g12
sg18
V/Library/Fonts/ACaslonPro-BoldItalic.otf
p1028
sg20
g21
sbag1
(g8
g3
NtRp1029
(dp1030
g11
g32
sg13
S'Adobe Caslon Pro'
p1031
sg15
I700
sg16
g12
sg17
g12
sg18
V/Library/Fonts/ACaslonPro-SemiboldItalic.otf
p1032
sg20
g21
sbag1
(g8
g3
NtRp1033
(dp1034
g11
g12
sg13
S'.SF Compact Rounded'
p1035
sg15
I400
sg16
g12
sg17
g12
sg18
V/System/Library/Fonts/SFCompactRounded-Black.otf
p1036
sg20
g21
sbag1
(g8
g3
NtRp1037
(dp1038
g11
g32
sg13
S'Sharp Sans No1 Light Italic'
p1039
sg15
I200
sg16
g12
sg17
g12
sg18
V/Library/Fonts/Sharp Sans No1 - Light Italic.otf
p1040
sg20
g21
sbag1
(g8
g3
NtRp1041
(dp1042
g11
g12
sg13
S'Kozuka Gothic Pr6N'
p1043
sg15
I400
sg16
g12
sg17
g12
sg18
V/Library/Fonts/KozGoPr6N-ExtraLight.otf
p1044
sg20
g21
sbag1
(g8
g3
NtRp1045
(dp1046
g11
g32
sg13
S'Source Sans Pro'
p1047
sg15
I700
sg16
g12
sg17
g12
sg18
V/Library/Fonts/SourceSansPro-SemiboldIt.otf
p1048
sg20
g21
sbag1
(g8
g3
NtRp1049
(dp1050
g11
g12
sg13
S'OCR A Std'
p1051
sg15
I400
sg16
g12
sg17
g12
sg18
V/Library/Fonts/OCRAStd.otf
p1052
sg20
g21
sbag1
(g8
g3
NtRp1053
(dp1054
g11
g12
sg13
S'STIXSizeThreeSym'
p1055
sg15
I400
sg16
g12
sg17
g12
sg18
V/Library/Fonts/STIXSizThreeSymReg.otf
p1056
sg20
g21
sbag1
(g8
g3
NtRp1057
(dp1058
g11
g12
sg13
S'DIN Condensed'
p1059
sg15
I700
sg16
g167
sg17
g12
sg18
V/Library/Fonts/DIN Condensed Bold.ttf
p1060
sg20
g21
sbag1
(g8
g3
NtRp1061
(dp1062
g11
g32
sg13
S'Sharp Sans No1 Semibold Italic'
p1063
sg15
I700
sg16
g12
sg17
g12
sg18
V/Library/Fonts/Sharp Sans No1 - Semibold Italic.otf
p1064
sg20
g21
sbag1
(g8
g3
NtRp1065
(dp1066
g11
g12
sg13
S'Microsoft Himalaya'
p1067
sg15
I400
sg16
g12
sg17
g12
sg18
V/Library/Fonts/Microsoft/himalaya.ttf
p1068
sg20
g21
sbag1
(g8
g3
NtRp1069
(dp1070
g11
g12
sg13
S'Estrangelo Nisibin'
p1071
sg15
I400
sg16
g12
sg17
g12
sg18
V/usr/X11/lib/X11/fonts/OTF/SyrCOMNisibin.otf
p1072
sg20
g21
sbag1
(g8
g3
NtRp1073
(dp1074
g11
g12
sg13
S'AppleGothic'
p1075
sg15
I400
sg16
g12
sg17
g12
sg18
V/Library/Fonts/AppleGothic.ttf
p1076
sg20
g21
sbag1
(g8
g3
NtRp1077
(dp1078
g11
g12
sg13
S'Arial Narrow'
p1079
sg15
I400
sg16
g167
sg17
g12
sg18
V/Library/Fonts/Arial Narrow.ttf
p1080
sg20
g21
sbag1
(g8
g3
NtRp1081
(dp1082
g11
g32
sg13
S'Times New Roman'
p1083
sg15
I500
sg16
g12
sg17
g12
sg18
V/Library/Fonts/Microsoft/Times New Roman Italic.ttf
p1084
sg20
g21
sbag1
(g8
g3
NtRp1085
(dp1086
g11
g12
sg13
S'.SF NS Display Condensed'
p1087
sg15
I400
sg16
g12
sg17
g12
sg18
V/System/Library/Fonts/SFNSDisplayCondensed-Semibold.otf
p1088
sg20
g21
sbag1
(g8
g3
NtRp1089
(dp1090
g11
g12
sg13
S'PMingLiU-ExtB'
p1091
sg15
I400
sg16
g12
sg17
g12
sg18
V/Library/Fonts/Microsoft/PMingLiU-ExtB.ttf
p1092
sg20
g21
sbag1
(g8
g3
NtRp1093
(dp1094
g11
g65
sg13
S'Luxi Mono'
p1095
sg15
I400
sg16
g12
sg17
g12
sg18
V/usr/X11/lib/X11/fonts/TTF/luximri.ttf
p1096
sg20
g21
sbag1
(g8
g3
NtRp1097
(dp1098
g11
g12
sg13
S'.SF Compact Text'
p1099
sg15
I400
sg16
g12
sg17
g12
sg18
V/System/Library/Fonts/SFCompactText-BoldItalic.otf
p1100
sg20
g21
sbag1
(g8
g3
NtRp1101
(dp1102
g11
g12
sg13
S'Source Sans Pro'
p1103
sg15
I700
sg16
g12
sg17
g12
sg18
V/Library/Fonts/SourceSansPro-Semibold.otf
p1104
sg20
g21
sbag1
(g8
g3
NtRp1105
(dp1106
g11
g12
sg13
S'.SF Compact Text'
p1107
sg15
I400
sg16
g12
sg17
g12
sg18
V/System/Library/Fonts/SFCompactText-RegularItalic.otf
p1108
sg20
g21
sbag1
(g8
g3
NtRp1109
(dp1110
g11
g12
sg13
S'Serto Mardin'
p1111
sg15
I700
sg16
g12
sg17
g12
sg18
V/usr/X11/lib/X11/fonts/OTF/SyrCOMMardinBold.otf
p1112
sg20
g21
sbag1
(g8
g3
NtRp1113
(dp1114
g11
g12
sg13
S'Source Sans Pro'
p1115
sg15
I200
sg16
g12
sg17
g12
sg18
V/Library/Fonts/SourceSansPro-Light.otf
p1116
sg20
g21
sbag1
(g8
g3
NtRp1117
(dp1118
g11
g12
sg13
S'System Font'
p1119
sg15
I400
sg16
g12
sg17
g12
sg18
V/System/Library/Fonts/SFNSDisplay.ttf
p1120
sg20
g21
sbag1
(g8
g3
NtRp1121
(dp1122
g11
g12
sg13
S'Arial Narrow'
p1123
sg15
I700
sg16
g167
sg17
g12
sg18
V/Library/Fonts/Arial Narrow Bold.ttf
p1124
sg20
g21
sbag1
(g8
g3
NtRp1125
(dp1126
g11
g12
sg13
S'.SF NS Display Condensed'
p1127
sg15
I400
sg16
g12
sg17
g12
sg18
V/System/Library/Fonts/SFNSDisplayCondensed-Light.otf
p1128
sg20
g21
sbag1
(g8
g3
NtRp1129
(dp1130
g11
g12
sg13
S'Georgia'
p1131
sg15
I400
sg16
g12
sg17
g12
sg18
V/Library/Fonts/Georgia.ttf
p1132
sg20
g21
sbag1
(g8
g3
NtRp1133
(dp1134
g11
g32
sg13
S'Nueva Std'
p1135
sg15
I700
sg16
g167
sg17
g12
sg18
V/Library/Fonts/NuevaStd-BoldCondItalic.otf
p1136
sg20
g21
sbag1
(g8
g3
NtRp1137
(dp1138
g11
g12
sg13
S'Charlemagne Std'
p1139
sg15
I700
sg16
g12
sg17
g12
sg18
V/Library/Fonts/CharlemagneStd-Bold.otf
p1140
sg20
g21
sbag1
(g8
g3
NtRp1141
(dp1142
g11
g12
sg13
S'Prestige Elite Std'
p1143
sg15
I700
sg16
g12
sg17
g12
sg18
V/Library/Fonts/PrestigeEliteStd-Bd.otf
p1144
sg20
g21
sbag1
(g8
g3
NtRp1145
(dp1146
g11
g12
sg13
S'Constantia'
p1147
sg15
I700
sg16
g12
sg17
g12
sg18
V/Library/Fonts/Microsoft/Constantia Bold.ttf
p1148
sg20
g21
sbag1
(g8
g3
NtRp1149
(dp1150
g11
g12
sg13
S'Minion Pro'
p1151
sg15
I400
sg16
g12
sg17
g12
sg18
V/Library/Fonts/MinionPro-Regular.otf
p1152
sg20
g21
sbag1
(g8
g3
NtRp1153
(dp1154
g11
g12
sg13
S'Luxi Serif'
p1155
sg15
I700
sg16
g12
sg17
g12
sg18
V/usr/X11/lib/X11/fonts/TTF/luxirb.ttf
p1156
sg20
g21
sbag1
(g8
g3
NtRp1157
(dp1158
g11
g32
sg13
S'Arial Narrow'
p1159
sg15
I400
sg16
g167
sg17
g12
sg18
V/Library/Fonts/Arial Narrow Italic.ttf
p1160
sg20
g21
sbag1
(g8
g3
NtRp1161
(dp1162
g11
g12
sg13
S'.SF Compact Display'
p1163
sg15
I400
sg16
g12
sg17
g12
sg18
V/System/Library/Fonts/SFCompactDisplay-Regular.otf
p1164
sg20
g21
sbag1
(g8
g3
NtRp1165
(dp1166
g11
g12
sg13
S'.SF NS Display Condensed'
p1167
sg15
I400
sg16
g12
sg17
g12
sg18
V/System/Library/Fonts/SFNSDisplayCondensed-Ultralight.otf
p1168
sg20
g21
sbag1
(g8
g3
NtRp1169
(dp1170
g11
g12
sg13
S'Arial'
p1171
sg15
I700
sg16
g12
sg17
g12
sg18
V/Library/Fonts/Microsoft/Arial Bold.ttf
p1172
sg20
g21
sbag1
(g8
g3
NtRp1173
(dp1174
g11
g12
sg13
S'Tw Cen MT'
p1175
sg15
I700
sg16
g12
sg17
g12
sg18
V/Library/Fonts/Microsoft/Tw Cen MT Bold.ttf
p1176
sg20
g21
sbag1
(g8
g3
NtRp1177
(dp1178
g11
g12
sg13
S'Plantagenet Cherokee'
p1179
sg15
I400
sg16
g12
sg17
g12
sg18
V/Library/Fonts/PlantagenetCherokee.ttf
p1180
sg20
g21
sbag1
(g8
g3
NtRp1181
(dp1182
g11
g32
sg13
S'Brush Script MT'
p1183
sg15
I400
sg16
g12
sg17
g12
sg18
V/Library/Fonts/Microsoft/Brush Script.ttf
p1184
sg20
g21
sbag1
(g8
g3
NtRp1185
(dp1186
g11
g12
sg13
S'Source Code Pro'
p1187
sg15
I900
sg16
g12
sg17
g12
sg18
V/Library/Fonts/SourceCodePro-Black.ttf
p1188
sg20
g21
sbag1
(g8
g3
NtRp1189
(dp1190
g11
g32
sg13
S'Tw Cen MT'
p1191
sg15
I700
sg16
g12
sg17
g12
sg18
V/Library/Fonts/Microsoft/Tw Cen MT Bold Italic.ttf
p1192
sg20
g21
sbag1
(g8
g3
NtRp1193
(dp1194
g11
g12
sg13
S'STIXVariants'
p1195
sg15
I400
sg16
g12
sg17
g12
sg18
V/Library/Fonts/STIXVar.otf
p1196
sg20
g21
sbag1
(g8
g3
NtRp1197
(dp1198
g11
g12
sg13
S'Mishafi'
p1199
sg15
I400
sg16
g12
sg17
g12
sg18
V/Library/Fonts/Mishafi.ttf
p1200
sg20
g21
sbag1
(g8
g3
NtRp1201
(dp1202
g11
g32
sg13
S'Candara'
p1203
sg15
I700
sg16
g12
sg17
g12
sg18
V/Library/Fonts/Microsoft/Candara Bold Italic.ttf
p1204
sg20
g21
sbag1
(g8
g3
NtRp1205
(dp1206
g11
g12
sg13
S'System Font'
p1207
sg15
I400
sg16
g12
sg17
g12
sg18
V/System/Library/Fonts/SFNSDisplay-BlackItalic.otf
p1208
sg20
g21
sbag1
(g8
g3
NtRp1209
(dp1210
g11
g12
sg13
S'Lithos Pro'
p1211
sg15
I900
sg16
g12
sg17
g12
sg18
V/Library/Fonts/LithosPro-Black.otf
p1212
sg20
g21
sbag1
(g8
g3
NtRp1213
(dp1214
g11
g12
sg13
S'Birch Std'
p1215
sg15
I400
sg16
g12
sg17
g12
sg18
V/Library/Fonts/BirchStd.otf
p1216
sg20
g21
sbag1
(g8
g3
NtRp1217
(dp1218
g11
g12
sg13
S'Cambria Math'
p1219
sg15
I400
sg16
g12
sg17
g12
sg18
V/Library/Fonts/Microsoft/Cambria Math.ttf
p1220
sg20
g21
sbag1
(g8
g3
NtRp1221
(dp1222
g11
g12
sg13
S'Skia'
p1223
sg15
I400
sg16
g12
sg17
g12
sg18
V/Library/Fonts/Skia.ttf
p1224
sg20
g21
sbag1
(g8
g3
NtRp1225
(dp1226
g11
g12
sg13
S'Kozuka Gothic Pr6N'
p1227
sg15
I700
sg16
g12
sg17
g12
sg18
V/Library/Fonts/KozGoPr6N-Bold.otf
p1228
sg20
g21
sbag1
(g8
g3
NtRp1229
(dp1230
g11
g12
sg13
S'Adobe Arabic'
p1231
sg15
I400
sg16
g12
sg17
g12
sg18
V/Library/Fonts/AdobeArabic-Regular.otf
p1232
sg20
g21
sbag1
(g8
g3
NtRp1233
(dp1234
g11
g12
sg13
S'.SF Compact Display'
p1235
sg15
I400
sg16
g12
sg17
g12
sg18
V/System/Library/Fonts/SFCompactDisplay-Light.otf
p1236
sg20
g21
sbag1
(g8
g3
NtRp1237
(dp1238
g11
g12
sg13
S'Kozuka Mincho Pro'
p1239
sg15
I700
sg16
g12
sg17
g12
sg18
V/Library/Fonts/KozMinPro-Heavy.otf
p1240
sg20
g21
sbag1
(g8
g3
NtRp1241
(dp1242
g11
g12
sg13
S'Luxi Sans'
p1243
sg15
I400
sg16
g12
sg17
g12
sg18
V/usr/X11/lib/X11/fonts/TTF/luxisr.ttf
p1244
sg20
g21
sbag1
(g8
g3
NtRp1245
(dp1246
g11
g12
sg13
S'Lucida Console'
p1247
sg15
I400
sg16
g12
sg17
g12
sg18
V/Library/Fonts/Microsoft/Lucida Console.ttf
p1248
sg20
g21
sbag1
(g8
g3
NtRp1249
(dp1250
g11
g12
sg13
S'Lithos Pro'
p1251
sg15
I400
sg16
g12
sg17
g12
sg18
V/Library/Fonts/LithosPro-Regular.otf
p1252
sg20
g21
sbag1
(g8
g3
NtRp1253
(dp1254
g11
g12
sg13
S'Trajan Pro'
p1255
sg15
I400
sg16
g12
sg17
g12
sg18
V/Library/Fonts/TrajanPro-Regular.otf
p1256
sg20
g21
sbag1
(g8
g3
NtRp1257
(dp1258
g11
g12
sg13
S'Kozuka Mincho Pro'
p1259
sg15
I700
sg16
g12
sg17
g12
sg18
V/Library/Fonts/KozMinPro-Bold.otf
p1260
sg20
g21
sbag1
(g8
g3
NtRp1261
(dp1262
g11
g12
sg13
S'Perpetua'
p1263
sg15
I400
sg16
g12
sg17
g12
sg18
V/Library/Fonts/Microsoft/Perpetua.ttf
p1264
sg20
g21
sbag1
(g8
g3
NtRp1265
(dp1266
g11
g12
sg13
S'Nueva Std'
p1267
sg15
I700
sg16
g167
sg17
g12
sg18
V/Library/Fonts/NuevaStd-BoldCond.otf
p1268
sg20
g21
sbag1
(g8
g3
NtRp1269
(dp1270
g11
g12
sg13
S'Cambria'
p1271
sg15
I700
sg16
g12
sg17
g12
sg18
V/Library/Fonts/Microsoft/Cambria Bold.ttf
p1272
sg20
g21
sbag1
(g8
g3
NtRp1273
(dp1274
g11
g32
sg13
S'Courier New'
p1275
sg15
I700
sg16
g12
sg17
g12
sg18
V/Library/Fonts/Courier New Bold Italic.ttf
p1276
sg20
g21
sbag1
(g8
g3
NtRp1277
(dp1278
g11
g32
sg13
S'Sharp Sans No1 Hairline Italic'
p1279
sg15
I400
sg16
g12
sg17
g12
sg18
V/Library/Fonts/Sharp Sans No1 - Hairline Italic.otf
p1280
sg20
g21
sbag1
(g8
g3
NtRp1281
(dp1282
g11
g12
sg13
S'Arial Rounded MT Bold'
p1283
sg15
I700
sg16
g12
sg17
g12
sg18
V/Library/Fonts/Arial Rounded Bold.ttf
p1284
sg20
g21
sbag1
(g8
g3
NtRp1285
(dp1286
g11
g12
sg13
S'Trajan Pro'
p1287
sg15
I700
sg16
g12
sg17
g12
sg18
V/Library/Fonts/TrajanPro-Bold.otf
p1288
sg20
g21
sbag1
(g8
g3
NtRp1289
(dp1290
g11
g32
sg13
S'Adobe Arabic'
p1291
sg15
I700
sg16
g12
sg17
g12
sg18
V/Library/Fonts/AdobeArabic-BoldItalic.otf
p1292
sg20
g21
sbag1
(g8
g3
NtRp1293
(dp1294
g11
g12
sg13
S'.SF NS Display Condensed'
p1295
sg15
I400
sg16
g12
sg17
g12
sg18
V/System/Library/Fonts/SFNSDisplayCondensed-Thin.otf
p1296
sg20
g21
sbag1
(g8
g3
NtRp1297
(dp1298
g11
g12
sg13
S'Kozuka Gothic Pr6N'
p1299
sg15
I400
sg16
g12
sg17
g12
sg18
V/Library/Fonts/KozGoPr6N-Light.otf
p1300
sg20
g21
sbag1
(g8
g3
NtRp1301
(dp1302
g11
g12
sg13
S'MingLiU-ExtB'
p1303
sg15
I400
sg16
g12
sg17
g12
sg18
V/Library/Fonts/Microsoft/MingLiU-ExtB.ttf
p1304
sg20
g21
sbag1
(g8
g3
NtRp1305
(dp1306
g11
g32
sg13
S'Franklin Gothic Medium'
p1307
sg15
I500
sg16
g12
sg17
g12
sg18
V/Library/Fonts/Microsoft/Franklin Gothic Medium Italic.ttf
p1308
sg20
g21
sbag1
(g8
g3
NtRp1309
(dp1310
g11
g12
sg13
S'Kozuka Mincho Pro'
p1311
sg15
I400
sg16
g12
sg17
g12
sg18
V/Library/Fonts/KozMinPro-Medium.otf
p1312
sg20
g21
sbag1
(g8
g3
NtRp1313
(dp1314
g11
g32
sg13
S'Constantia'
p1315
sg15
I400
sg16
g12
sg17
g12
sg18
V/Library/Fonts/Microsoft/Constantia Italic.ttf
p1316
sg20
g21
sbag1
(g8
g3
NtRp1317
(dp1318
g11
g12
sg13
S'.SF Compact Text'
p1319
sg15
I400
sg16
g12
sg17
g12
sg18
V/System/Library/Fonts/SFCompactText-Heavy.otf
p1320
sg20
g21
sbag1
(g8
g3
NtRp1321
(dp1322
g11
g12
sg13
S'Cambria'
p1323
sg15
I400
sg16
g12
sg17
g12
sg18
V/Library/Fonts/Microsoft/Cambria.ttf
p1324
sg20
g21
sbag1
(g8
g3
NtRp1325
(dp1326
g11
g12
sg13
S'Perpetua'
p1327
sg15
I700
sg16
g12
sg17
g12
sg18
V/Library/Fonts/Microsoft/Perpetua Bold.ttf
p1328
sg20
g21
sbag1
(g8
g3
NtRp1329
(dp1330
g11
g12
sg13
S'System Font'
p1331
sg15
I400
sg16
g12
sg17
g12
sg18
V/System/Library/Fonts/SFNSDisplay-MediumItalic.otf
p1332
sg20
g21
sbag1
(g8
g3
NtRp1333
(dp1334
g11
g12
sg13
S'Batang'
p1335
sg15
I400
sg16
g12
sg17
g12
sg18
V/Library/Fonts/Microsoft/Batang.ttf
p1336
sg20
g21
sbag1
(g8
g3
NtRp1337
(dp1338
g11
g12
sg13
S'Kozuka Gothic Pro'
p1339
sg15
I400
sg16
g12
sg17
g12
sg18
V/Library/Fonts/KozGoPro-Light.otf
p1340
sg20
g21
sbag1
(g8
g3
NtRp1341
(dp1342
g11
g12
sg13
S'.SF Compact Text'
p1343
sg15
I400
sg16
g12
sg17
g12
sg18
V/System/Library/Fonts/SFCompactText-MediumItalic.otf
p1344
sg20
g21
sbag1
(g8
g3
NtRp1345
(dp1346
g11
g12
sg13
S'Source Code Pro'
p1347
sg15
I400
sg16
g12
sg17
g12
sg18
V/Library/Fonts/SourceCodePro-Regular.ttf
p1348
sg20
g21
sbag1
(g8
g3
NtRp1349
(dp1350
g11
g12
sg13
S'Minion Pro'
p1351
sg15
I700
sg16
g12
sg17
g12
sg18
V/Library/Fonts/MinionPro-Semibold.otf
p1352
sg20
g21
sbag1
(g8
g3
NtRp1353
(dp1354
g11
g12
sg13
S'.SF NS Text Condensed'
p1355
sg15
I400
sg16
g12
sg17
g12
sg18
V/System/Library/Fonts/SFNSTextCondensed-Semibold.otf
p1356
sg20
g21
sbag1
(g8
g3
NtRp1357
(dp1358
g11
g12
sg13
S'.SF Compact Text'
p1359
sg15
I400
sg16
g12
sg17
g12
sg18
V/System/Library/Fonts/SFCompactText-SemiboldItalic.otf
p1360
sg20
g21
sbag1
(g8
g3
NtRp1361
(dp1362
g11
g32
sg13
S'Letter Gothic Std'
p1363
sg15
I400
sg16
g12
sg17
g12
sg18
V/Library/Fonts/LetterGothicStd-Slanted.otf
p1364
sg20
g21
sbag1
(g8
g3
NtRp1365
(dp1366
g11
g65
sg13
S'Luxi Sans'
p1367
sg15
I700
sg16
g12
sg17
g12
sg18
V/usr/X11/lib/X11/fonts/TTF/luxisbi.ttf
p1368
sg20
g21
sbag1
(g8
g3
NtRp1369
(dp1370
g11
g32
sg13
S'Myriad Pro'
p1371
sg15
I700
sg16
g12
sg17
g12
sg18
V/Library/Fonts/MyriadPro-BoldIt.otf
p1372
sg20
g21
sbag1
(g8
g3
NtRp1373
(dp1374
g11
g12
sg13
S'.Keyboard'
p1375
sg15
I400
sg16
g12
sg17
g12
sg18
V/System/Library/Fonts/Keyboard.ttf
p1376
sg20
g21
sbag1
(g8
g3
NtRp1377
(dp1378
g11
g12
sg13
S'East Syriac Adiabene'
p1379
sg15
I400
sg16
g12
sg17
g12
sg18
V/usr/X11/lib/X11/fonts/OTF/SyrCOMAdiabene.otf
p1380
sg20
g21
sbag1
(g8
g3
NtRp1381
(dp1382
g11
g32
sg13
S'Minion Pro'
p1383
sg15
I700
sg16
g167
sg17
g12
sg18
V/Library/Fonts/MinionPro-BoldCnIt.otf
p1384
sg20
g21
sbag1
(g8
g3
NtRp1385
(dp1386
g11
g12
sg13
S'Source Code Pro'
p1387
sg15
I200
sg16
g12
sg17
g12
sg18
V/Library/Fonts/SourceCodePro-ExtraLight.ttf
p1388
sg20
g21
sbag1
(g8
g3
NtRp1389
(dp1390
g11
g32
sg13
S'Consolas'
p1391
sg15
I700
sg16
g12
sg17
g12
sg18
V/Library/Fonts/Microsoft/Consolas Bold Italic.ttf
p1392
sg20
g21
sbag1
(g8
g3
NtRp1393
(dp1394
g11
g32
sg13
S'Sharp Sans No1 Ultrathin Italic'
p1395
sg15
I400
sg16
g12
sg17
g12
sg18
V/Library/Fonts/Sharp Sans No1 - Ultrathin Italic.otf
p1396
sg20
g21
sbag1
(g8
g3
NtRp1397
(dp1398
g11
g12
sg13
S'Microsoft Sans Serif'
p1399
sg15
I400
sg16
g12
sg17
g12
sg18
V/Library/Fonts/Microsoft Sans Serif.ttf
p1400
sg20
g21
sbag1
(g8
g3
NtRp1401
(dp1402
g11
g12
sg13
S'STIXIntegralsUpD'
p1403
sg15
I700
sg16
g12
sg17
g12
sg18
V/Library/Fonts/STIXIntUpDBol.otf
p1404
sg20
g21
sbag1
(g8
g3
NtRp1405
(dp1406
g11
g12
sg13
S'Myriad Pro'
p1407
sg15
I700
sg16
g12
sg17
g12
sg18
V/Library/Fonts/MyriadPro-Bold.otf
p1408
sg20
g21
sbag1
(g8
g3
NtRp1409
(dp1410
g11
g12
sg13
S'STIXGeneral'
p1411
sg15
I400
sg16
g12
sg17
g12
sg18
V/Library/Fonts/STIXGeneral.otf
p1412
sg20
g21
sbag1
(g8
g3
NtRp1413
(dp1414
g11
g12
sg13
S'Giddyup Std'
p1415
sg15
I400
sg16
g12
sg17
g12
sg18
V/Library/Fonts/GiddyupStd.otf
p1416
sg20
g21
sbag1
(g8
g3
NtRp1417
(dp1418
g11
g12
sg13
S'Apple Chancery'
p1419
sg15
I400
sg16
g12
sg17
g12
sg18
V/Library/Fonts/Apple Chancery.ttf
p1420
sg20
g21
sbag1
(g8
g3
NtRp1421
(dp1422
g11
g32
sg13
S'Sharp Sans No1 Black Italic'
p1423
sg15
I900
sg16
g12
sg17
g12
sg18
V/Library/Fonts/Sharp Sans No1 - Black Italic.otf
p1424
sg20
g21
sbag1
(g8
g3
NtRp1425
(dp1426
g11
g12
sg13
S'STIXIntegralsUpSm'
p1427
sg15
I700
sg16
g12
sg17
g12
sg18
V/Library/Fonts/STIXIntUpSmBol.otf
p1428
sg20
g21
sbag1
(g8
g3
NtRp1429
(dp1430
g11
g12
sg13
S'Sharp Sans No1 Extrabold'
p1431
sg15
I700
sg16
g12
sg17
g12
sg18
V/Library/Fonts/Sharp Sans No1 - Extrabold.otf
p1432
sg20
g21
sbag1
(g8
g3
NtRp1433
(dp1434
g11
g12
sg13
S'System Font'
p1435
sg15
I400
sg16
g12
sg17
g12
sg18
V/System/Library/Fonts/SFNSDisplay-RegularItalic.otf
p1436
sg20
g21
sbag1
(g8
g3
NtRp1437
(dp1438
g11
g12
sg13
S'STIXSizeOneSym'
p1439
sg15
I700
sg16
g12
sg17
g12
sg18
V/Library/Fonts/STIXSizOneSymBol.otf
p1440
sg20
g21
sbag1
(g8
g3
NtRp1441
(dp1442
g11
g12
sg13
S'SimSun-ExtB'
p1443
sg15
I400
sg16
g12
sg17
g12
sg18
V/Library/Fonts/Microsoft/SimSun-ExtB.ttf
p1444
sg20
g21
sbag1
(g8
g3
NtRp1445
(dp1446
g11
g12
sg13
S'Palatino Linotype'
p1447
sg15
I400
sg16
g12
sg17
g12
sg18
V/Library/Fonts/Microsoft/Palatino Linotype.ttf
p1448
sg20
g21
sbag1
(g8
g3
NtRp1449
(dp1450
g11
g12
sg13
S'Adobe Hebrew'
p1451
sg15
I400
sg16
g12
sg17
g12
sg18
V/Library/Fonts/AdobeHebrew-Regular.otf
p1452
sg20
g21
sbag1
(g8
g3
NtRp1453
(dp1454
g11
g12
sg13
S'STIXSizeTwoSym'
p1455
sg15
I400
sg16
g12
sg17
g12
sg18
V/Library/Fonts/STIXSizTwoSymReg.otf
p1456
sg20
g21
sbag1
(g8
g3
NtRp1457
(dp1458
g11
g12
sg13
S'Sharp Sans No1 Black'
p1459
sg15
I900
sg16
g12
sg17
g12
sg18
V/Library/Fonts/Sharp Sans No1 - Black.otf
p1460
sg20
g21
sbag1
(g8
g3
NtRp1461
(dp1462
g11
g12
sg13
S'MS PGothic'
p1463
sg15
I400
sg16
g12
sg17
g12
sg18
V/Library/Fonts/Microsoft/MS PGothic.ttf
p1464
sg20
g21
sbag1
(g8
g3
NtRp1465
(dp1466
g11
g12
sg13
S'System Font'
p1467
sg15
I400
sg16
g12
sg17
g12
sg18
V/System/Library/Fonts/SFNSSymbols-Regular.otf
p1468
sg20
g21
sbag1
(g8
g3
NtRp1469
(dp1470
g11
g32
sg13
S'Serto Jerusalem'
p1471
sg15
I400
sg16
g12
sg17
g12
sg18
V/usr/X11/lib/X11/fonts/OTF/SyrCOMJerusalemItalic.otf
p1472
sg20
g21
sbag1
(g8
g3
NtRp1473
(dp1474
g11
g12
sg13
S'Adobe Gurmukhi'
p1475
sg15
I700
sg16
g12
sg17
g12
sg18
V/Library/Fonts/AdobeGurmukhi-Bold.otf
p1476
sg20
g21
sbag1
(g8
g3
NtRp1477
(dp1478
g11
g12
sg13
S'STIXIntegralsUpD'
p1479
sg15
I400
sg16
g12
sg17
g12
sg18
V/Library/Fonts/STIXIntUpDReg.otf
p1480
sg20
g21
sbag1
(g8
g3
NtRp1481
(dp1482
g11
g12
sg13
S'System Font'
p1483
sg15
I400
sg16
g12
sg17
g12
sg18
V/System/Library/Fonts/SFNSDisplay-ThinItalic.otf
p1484
sg20
g21
sbag1
(g8
g3
NtRp1485
(dp1486
g11
g12
sg13
S'Source Code Pro'
p1487
sg15
I200
sg16
g12
sg17
g12
sg18
V/Library/Fonts/SourceCodePro-Light.ttf
p1488
sg20
g21
sbag1
(g8
g3
NtRp1489
(dp1490
g11
g12
sg13
S'Kozuka Gothic Pro'
p1491
sg15
I700
sg16
g12
sg17
g12
sg18
V/Library/Fonts/KozGoPro-Bold.otf
p1492
sg20
g21
sbag1
(g8
g3
NtRp1493
(dp1494
g11
g32
sg13
S'Candara'
p1495
sg15
I400
sg16
g12
sg17
g12
sg18
V/Library/Fonts/Microsoft/Candara Italic.ttf
p1496
sg20
g21
sbag1
(g8
g3
NtRp1497
(dp1498
g11
g12
sg13
S'Kozuka Gothic Pro'
p1499
sg15
I400
sg16
g12
sg17
g12
sg18
V/Library/Fonts/KozGoPro-Medium.otf
p1500
sg20
g21
sbag1
(g8
g3
NtRp1501
(dp1502
g11
g12
sg13
S'Adobe Gurmukhi'
p1503
sg15
I400
sg16
g12
sg17
g12
sg18
V/Library/Fonts/AdobeGurmukhi-Regular.otf
p1504
sg20
g21
sbag1
(g8
g3
NtRp1505
(dp1506
g11
g12
sg13
S'Arial Unicode MS'
p1507
sg15
I400
sg16
g12
sg17
g12
sg18
V/Library/Fonts/Arial Unicode.ttf
p1508
sg20
g21
sbag1
(g8
g3
NtRp1509
(dp1510
g11
g12
sg13
S'Adobe Heiti Std'
p1511
sg15
I400
sg16
g12
sg17
g12
sg18
V/Library/Fonts/AdobeHeitiStd-Regular.otf
p1512
sg20
g21
sbag1
(g8
g3
NtRp1513
(dp1514
g11
g32
sg13
S'Adobe Devanagari'
p1515
sg15
I400
sg16
g12
sg17
g12
sg18
V/Library/Fonts/AdobeDevanagari-Italic.otf
p1516
sg20
g21
sbag1
(g8
g3
NtRp1517
(dp1518
g11
g12
sg13
S'Chaparral Pro'
p1519
sg15
I700
sg16
g12
sg17
g12
sg18
V/Library/Fonts/ChaparralPro-Bold.otf
p1520
sg20
g21
sbag1
(g8
g3
NtRp1521
(dp1522
g11
g12
sg13
S'.SF NS Text Condensed'
p1523
sg15
I400
sg16
g12
sg17
g12
sg18
V/System/Library/Fonts/SFNSTextCondensed-Bold.otf
p1524
sg20
g21
sbag1
(g8
g3
NtRp1525
(dp1526
g11
g12
sg13
S'Times New Roman'
p1527
sg15
I700
sg16
g12
sg17
g12
sg18
V/Library/Fonts/Microsoft/Times New Roman Bold.ttf
p1528
sg20
g21
sbag1
(g8
g3
NtRp1529
(dp1530
g11
g12
sg13
S'Kozuka Mincho Pr6N'
p1531
sg15
I400
sg16
g12
sg17
g12
sg18
V/Library/Fonts/KozMinPr6N-Regular.otf
p1532
sg20
g21
sbag1
(g8
g3
NtRp1533
(dp1534
g11
g12
sg13
S'Adobe Fan Heiti Std'
p1535
sg15
I700
sg16
g12
sg17
g12
sg18
V/Library/Fonts/AdobeFanHeitiStd-Bold.otf
p1536
sg20
g21
sbag1
(g8
g3
NtRp1537
(dp1538
g11
g12
sg13
S'Serto Jerusalem Outline'
p1539
sg15
I400
sg16
g12
sg17
g12
sg18
V/usr/X11/lib/X11/fonts/OTF/SyrCOMJerusalemOutline.otf
p1540
sg20
g21
sbag1
(g8
g3
NtRp1541
(dp1542
g11
g12
sg13
S'.SF NS Text Condensed'
p1543
sg15
I400
sg16
g12
sg17
g12
sg18
V/System/Library/Fonts/SFNSTextCondensed-Regular.otf
p1544
sg20
g21
sbag1
(g8
g3
NtRp1545
(dp1546
g11
g12
sg13
S'STIXIntegralsD'
p1547
sg15
I700
sg16
g12
sg17
g12
sg18
V/Library/Fonts/STIXIntDBol.otf
p1548
sg20
g21
sbag1
(g8
g3
NtRp1549
(dp1550
g11
g12
sg13
S'Myriad Hebrew'
p1551
sg15
I400
sg16
g12
sg17
g12
sg18
V/Library/Fonts/MyriadHebrew-Regular.otf
p1552
sg20
g21
sbag1
(g8
g3
NtRp1553
(dp1554
g11
g12
sg13
S'DIN Alternate'
p1555
sg15
I700
sg16
g12
sg17
g12
sg18
V/Library/Fonts/DIN Alternate Bold.ttf
p1556
sg20
g21
sbag1
(g8
g3
NtRp1557
(dp1558
g11
g12
sg13
S'.SF Compact Display'
p1559
sg15
I400
sg16
g12
sg17
g12
sg18
V/System/Library/Fonts/SFCompactDisplay-Bold.otf
p1560
sg20
g21
sbag1
(g8
g3
NtRp1561
(dp1562
g11
g12
sg13
S'Courier New'
p1563
sg15
I400
sg16
g12
sg17
g12
sg18
V/Library/Fonts/Courier New.ttf
p1564
sg20
g21
sbag1
(g8
g3
NtRp1565
(dp1566
g11
g32
sg13
S'Arial Narrow'
p1567
sg15
I700
sg16
g167
sg17
g12
sg18
V/Library/Fonts/Arial Narrow Bold Italic.ttf
p1568
sg20
g21
sbag1
(g8
g3
NtRp1569
(dp1570
g11
g12
sg13
S'Serto Jerusalem'
p1571
sg15
I400
sg16
g12
sg17
g12
sg18
V/usr/X11/lib/X11/fonts/OTF/SyrCOMJerusalem.otf
p1572
sg20
g21
sbag1
(g8
g3
NtRp1573
(dp1574
g11
g12
sg13
S'Zapfino'
p1575
sg15
I400
sg16
g12
sg17
g12
sg18
V/Library/Fonts/Zapfino.ttf
p1576
sg20
g21
sbag1
(g8
g3
NtRp1577
(dp1578
g11
g12
sg13
S'Krungthep'
p1579
sg15
I400
sg16
g12
sg17
g12
sg18
V/Library/Fonts/Krungthep.ttf
p1580
sg20
g21
sbag1
(g8
g3
NtRp1581
(dp1582
g11
g12
sg13
S'Mongolian Baiti'
p1583
sg15
I400
sg16
g12
sg17
g12
sg18
V/Library/Fonts/Microsoft/monbaiti.ttf
p1584
sg20
g21
sbag1
(g8
g3
NtRp1585
(dp1586
g11
g12
sg13
S'Diwan Thuluth'
p1587
sg15
I400
sg16
g12
sg17
g12
sg18
V/Library/Fonts/Diwan Thuluth.ttf
p1588
sg20
g21
sbag1
(g8
g3
NtRp1589
(dp1590
g11
g12
sg13
S'.SF Compact Text'
p1591
sg15
I400
sg16
g12
sg17
g12
sg18
V/System/Library/Fonts/SFCompactText-HeavyItalic.otf
p1592
sg20
g21
sbag1
(g8
g3
NtRp1593
(dp1594
g11
g12
sg13
S'Myriad Hebrew'
p1595
sg15
I700
sg16
g12
sg17
g12
sg18
V/Library/Fonts/MyriadHebrew-Bold.otf
p1596
sg20
g21
sbag1
(g8
g3
NtRp1597
(dp1598
g11
g32
sg13
S'Sharp Sans No1 Medium Italic'
p1599
sg15
I500
sg16
g12
sg17
g12
sg18
V/Library/Fonts/Sharp Sans No1 - Medium Italic.otf
p1600
sg20
g21
sbag1
(g8
g3
NtRp1601
(dp1602
g11
g32
sg13
S'Cooper Std'
p1603
sg15
I900
sg16
g12
sg17
g12
sg18
V/Library/Fonts/CooperBlackStd-Italic.otf
p1604
sg20
g21
sbag1
(g8
g3
NtRp1605
(dp1606
g11
g12
sg13
S'.SF Compact Rounded'
p1607
sg15
I400
sg16
g12
sg17
g12
sg18
V/System/Library/Fonts/SFCompactRounded-Thin.otf
p1608
sg20
g21
sbag1
(g8
g3
NtRp1609
(dp1610
g11
g12
sg13
S'Sharp Sans No1 Thin'
p1611
sg15
I400
sg16
g12
sg17
g12
sg18
V/Library/Fonts/Sharp Sans No1 - Thin.otf
p1612
sg20
g21
sbag1
(g8
g3
NtRp1613
(dp1614
g11
g12
sg13
S'Minion Pro'
p1615
sg15
I700
sg16
g167
sg17
g12
sg18
V/Library/Fonts/MinionPro-BoldCn.otf
p1616
sg20
g21
sbag1
(g8
g3
NtRp1617
(dp1618
g11
g12
sg13
S'Estrangelo Midyat'
p1619
sg15
I400
sg16
g12
sg17
g12
sg18
V/usr/X11/lib/X11/fonts/OTF/SyrCOMMidyat.otf
p1620
sg20
g21
sbag1
(g8
g3
NtRp1621
(dp1622
g11
g12
sg13
S'Apple Braille'
p1623
sg15
I400
sg16
g12
sg17
g12
sg18
V/System/Library/Fonts/Apple Braille Outline 8 Dot.ttf
p1624
sg20
g21
sbag1
(g8
g3
NtRp1625
(dp1626
g11
g12
sg13
S'Kozuka Mincho Pro'
p1627
sg15
I400
sg16
g12
sg17
g12
sg18
V/Library/Fonts/KozMinPro-Light.otf
p1628
sg20
g21
sbag1
(g8
g3
NtRp1629
(dp1630
g11
g32
sg13
S'Corbel'
p1631
sg15
I400
sg16
g12
sg17
g12
sg18
V/Library/Fonts/Microsoft/Corbel Italic.ttf
p1632
sg20
g21
sbag1
(g8
g3
NtRp1633
(dp1634
g11
g12
sg13
S'Goha-Tibeb Zemen'
p1635
sg15
I400
sg16
g12
sg17
g12
sg18
V/usr/X11/lib/X11/fonts/TTF/GohaTibebZemen.ttf
p1636
sg20
g21
sbag1
(g8
g3
NtRp1637
(dp1638
g11
g12
sg13
S'Palatino Linotype'
p1639
sg15
I700
sg16
g12
sg17
g12
sg18
V/Library/Fonts/Microsoft/Palatino Linotype Bold.ttf
p1640
sg20
g21
sbag1
(g8
g3
NtRp1641
(dp1642
g11
g32
sg13
S'Adobe Garamond Pro'
p1643
sg15
I400
sg16
g12
sg17
g12
sg18
V/Library/Fonts/AGaramondPro-Italic.otf
p1644
sg20
g21
sbag1
(g8
g3
NtRp1645
(dp1646
g11
g12
sg13
S'STIXVariants'
p1647
sg15
I700
sg16
g12
sg17
g12
sg18
V/Library/Fonts/STIXVarBol.otf
p1648
sg20
g21
sbag1
(g8
g3
NtRp1649
(dp1650
g11
g12
sg13
S'.SF NS Display Condensed'
p1651
sg15
I400
sg16
g12
sg17
g12
sg18
V/System/Library/Fonts/SFNSDisplayCondensed-Black.otf
p1652
sg20
g21
sbag1
(g8
g3
NtRp1653
(dp1654
g11
g12
sg13
S'Sharp Sans No1 Light'
p1655
sg15
I200
sg16
g12
sg17
g12
sg18
V/Library/Fonts/Sharp Sans No1 - Light.otf
p1656
sg20
g21
sbag1
(g8
g3
NtRp1657
(dp1658
g11
g12
sg13
S'Sharp Sans No1 Semibold'
p1659
sg15
I700
sg16
g12
sg17
g12
sg18
V/Library/Fonts/Sharp Sans No1 - Semibold.otf
p1660
sg20
g21
sbag1
(g8
g3
NtRp1661
(dp1662
g11
g12
sg13
S'MS Gothic'
p1663
sg15
I400
sg16
g12
sg17
g12
sg18
V/Library/Fonts/Microsoft/MS Gothic.ttf
p1664
sg20
g21
sbag1
(g8
g3
NtRp1665
(dp1666
g11
g12
sg13
S'MS PMincho'
p1667
sg15
I400
sg16
g12
sg17
g12
sg18
V/Library/Fonts/Microsoft/MS PMincho.ttf
p1668
sg20
g21
sbag1
(g8
g3
NtRp1669
(dp1670
g11
g12
sg13
S'STIXIntegralsUp'
p1671
sg15
I700
sg16
g12
sg17
g12
sg18
V/Library/Fonts/STIXIntUpBol.otf
p1672
sg20
g21
sbag1
(g8
g3
NtRp1673
(dp1674
g11
g12
sg13
S'MS Reference Sans Serif'
p1675
sg15
I400
sg16
g12
sg17
g12
sg18
V/Library/Fonts/Microsoft/MS Reference Sans Serif.ttf
p1676
sg20
g21
sbag1
(g8
g3
NtRp1677
(dp1678
g11
g12
sg13
S'STIXSizeTwoSym'
p1679
sg15
I700
sg16
g12
sg17
g12
sg18
V/Library/Fonts/STIXSizTwoSymBol.otf
p1680
sg20
g21
sbag1
(g8
g3
NtRp1681
(dp1682
g11
g12
sg13
S'Corbel'
p1683
sg15
I400
sg16
g12
sg17
g12
sg18
V/Library/Fonts/Microsoft/Corbel.ttf
p1684
sg20
g21
sbag1
(g8
g3
NtRp1685
(dp1686
g11
g12
sg13
S'Adobe Caslon Pro'
p1687
sg15
I700
sg16
g12
sg17
g12
sg18
V/Library/Fonts/ACaslonPro-Semibold.otf
p1688
sg20
g21
sbag1
(g8
g3
NtRp1689
(dp1690
g11
g12
sg13
S'Serto Mardin'
p1691
sg15
I400
sg16
g12
sg17
g12
sg18
V/usr/X11/lib/X11/fonts/OTF/SyrCOMMardin.otf
p1692
sg20
g21
sbag1
(g8
g3
NtRp1693
(dp1694
g11
g65
sg13
S'Luxi Serif'
p1695
sg15
I700
sg16
g12
sg17
g12
sg18
V/usr/X11/lib/X11/fonts/TTF/luxirbi.ttf
p1696
sg20
g21
sbag1
(g8
g3
NtRp1697
(dp1698
g11
g32
sg13
S'Sharp Sans No1 Thin Italic'
p1699
sg15
I400
sg16
g12
sg17
g12
sg18
V/Library/Fonts/Sharp Sans No1 - Thin Italic.otf
p1700
sg20
g21
sbag1
(g8
g3
NtRp1701
(dp1702
g11
g12
sg13
S'SimSun'
p1703
sg15
I400
sg16
g12
sg17
g12
sg18
V/Library/Fonts/Microsoft/SimSun.ttf
p1704
sg20
g21
sbag1
(g8
g3
NtRp1705
(dp1706
g11
g12
sg13
S'Sharp Sans No1 Bold'
p1707
sg15
I700
sg16
g12
sg17
g12
sg18
V/Library/Fonts/Sharp Sans No1 - Bold.otf
p1708
sg20
g21
sbag1
(g8
g3
NtRp1709
(dp1710
g11
g12
sg13
S'Source Sans Pro'
p1711
sg15
I200
sg16
g12
sg17
g12
sg18
V/Library/Fonts/SourceSansPro-ExtraLight.otf
p1712
sg20
g21
sbag1
(g8
g3
NtRp1713
(dp1714
g11
g12
sg13
S'Apple Braille'
p1715
sg15
I400
sg16
g12
sg17
g12
sg18
V/System/Library/Fonts/Apple Braille Pinpoint 8 Dot.ttf
p1716
sg20
g21
sbag1
(g8
g3
NtRp1717
(dp1718
g11
g32
sg13
S'Georgia'
p1719
sg15
I400
sg16
g12
sg17
g12
sg18
V/Library/Fonts/Georgia Italic.ttf
p1720
sg20
g21
sbag1
(g8
g3
NtRp1721
(dp1722
g11
g12
sg13
S'Apple Braille'
p1723
sg15
I400
sg16
g12
sg17
g12
sg18
V/System/Library/Fonts/Apple Braille Outline 6 Dot.ttf
p1724
sg20
g21
sbag1
(g8
g3
NtRp1725
(dp1726
g11
g12
sg13
S'Adobe Hebrew'
p1727
sg15
I700
sg16
g12
sg17
g12
sg18
V/Library/Fonts/AdobeHebrew-Bold.otf
p1728
sg20
g21
sbag1
(g8
g3
NtRp1729
(dp1730
g11
g32
sg13
S'Gill Sans MT'
p1731
sg15
I700
sg16
g12
sg17
g12
sg18
V/Library/Fonts/Microsoft/Gill Sans MT Bold Italic.ttf
p1732
sg20
g21
sbag1
(g8
g3
NtRp1733
(dp1734
g11
g12
sg13
S'Apple Symbols'
p1735
sg15
I400
sg16
g12
sg17
g12
sg18
V/System/Library/Fonts/Apple Symbols.ttf
p1736
sg20
g21
sbag1
(g8
g3
NtRp1737
(dp1738
g11
g12
sg13
S'Serto Kharput'
p1739
sg15
I400
sg16
g12
sg17
g12
sg18
V/usr/X11/lib/X11/fonts/OTF/SyrCOMKharput.otf
p1740
sg20
g21
sbag1
(g8
g3
NtRp1741
(dp1742
g11
g12
sg13
S'Adobe Garamond Pro'
p1743
sg15
I400
sg16
g12
sg17
g12
sg18
V/Library/Fonts/AGaramondPro-Regular.otf
p1744
sg20
g21
sbag1
(g8
g3
NtRp1745
(dp1746
g11
g12
sg13
S'Myriad Arabic'
p1747
sg15
I700
sg16
g12
sg17
g12
sg18
V/Library/Fonts/MyriadArabic-Bold.otf
p1748
sg20
g21
sbag1
(g8
g3
NtRp1749
(dp1750
g11
g65
sg13
S'Luxi Serif'
p1751
sg15
I400
sg16
g12
sg17
g12
sg18
V/usr/X11/lib/X11/fonts/TTF/luxirri.ttf
p1752
sg20
g21
sbag1
(g8
g3
NtRp1753
(dp1754
g11
g12
sg13
S'Chaparral Pro'
p1755
sg15
I400
sg16
g12
sg17
g12
sg18
V/Library/Fonts/ChaparralPro-Regular.otf
p1756
sg20
g21
sbag1
(g8
g3
NtRp1757
(dp1758
g11
g12
sg13
S'.SF Compact Display'
p1759
sg15
I400
sg16
g12
sg17
g12
sg18
V/System/Library/Fonts/SFCompactDisplay-Black.otf
p1760
sg20
g21
sbag1
(g8
g3
NtRp1761
(dp1762
g11
g12
sg13
S'STIXGeneral'
p1763
sg15
I700
sg16
g12
sg17
g12
sg18
V/Library/Fonts/STIXGeneralBol.otf
p1764
sg20
g21
sbag1
(g8
g3
NtRp1765
(dp1766
g11
g12
sg13
S'Meiryo'
p1767
sg15
I700
sg16
g12
sg17
g12
sg18
V/Library/Fonts/Microsoft/Meiryo Bold.ttf
p1768
sg20
g21
sbag1
(g8
g3
NtRp1769
(dp1770
g11
g12
sg13
S'System Font'
p1771
sg15
I400
sg16
g12
sg17
g12
sg18
V/System/Library/Fonts/SFNSDisplay-HeavyItalic.otf
p1772
sg20
g21
sbag1
(g8
g3
NtRp1773
(dp1774
g11
g12
sg13
S'Adobe Caslon Pro'
p1775
sg15
I700
sg16
g12
sg17
g12
sg18
V/Library/Fonts/ACaslonPro-Bold.otf
p1776
sg20
g21
sbag1
(g8
g3
NtRp1777
(dp1778
g11
g12
sg13
S'Franklin Gothic Book'
p1779
sg15
I400
sg16
g12
sg17
g12
sg18
V/Library/Fonts/Microsoft/Franklin Gothic Book.ttf
p1780
sg20
g21
sbag1
(g8
g3
NtRp1781
(dp1782
g11
g12
sg13
S'Kozuka Mincho Pr6N'
p1783
sg15
I400
sg16
g12
sg17
g12
sg18
V/Library/Fonts/KozMinPr6N-ExtraLight.otf
p1784
sg20
g21
sbag1
(g8
g3
NtRp1785
(dp1786
g11
g32
sg13
S'STIXGeneral'
p1787
sg15
I700
sg16
g12
sg17
g12
sg18
V/Library/Fonts/STIXGeneralBolIta.otf
p1788
sg20
g21
sbag1
(g8
g3
NtRp1789
(dp1790
g11
g12
sg13
S'Trebuchet MS'
p1791
sg15
I400
sg16
g12
sg17
g12
sg18
V/Library/Fonts/Trebuchet MS.ttf
p1792
sg20
g21
sbag1
(g8
g3
NtRp1793
(dp1794
g11
g12
sg13
S'Courier New'
p1795
sg15
I700
sg16
g12
sg17
g12
sg18
V/Library/Fonts/Courier New Bold.ttf
p1796
sg20
g21
sbag1
(g8
g3
NtRp1797
(dp1798
g11
g12
sg13
S'Adobe Fangsong Std'
p1799
sg15
I400
sg16
g12
sg17
g12
sg18
V/Library/Fonts/AdobeFangsongStd-Regular.otf
p1800
sg20
g21
sbag1
(g8
g3
NtRp1801
(dp1802
g11
g12
sg13
S'Herculanum'
p1803
sg15
I400
sg16
g12
sg17
g12
sg18
V/Library/Fonts/Herculanum.ttf
p1804
sg20
g21
sbag1
(g8
g3
NtRp1805
(dp1806
g11
g32
sg13
S'Minion Pro'
p1807
sg15
I700
sg16
g12
sg17
g12
sg18
V/Library/Fonts/MinionPro-SemiboldIt.otf
p1808
sg20
g21
sbag1
(g8
g3
NtRp1809
(dp1810
g11
g12
sg13
S'Adobe Devanagari'
p1811
sg15
I400
sg16
g12
sg17
g12
sg18
V/Library/Fonts/AdobeDevanagari-Regular.otf
p1812
sg20
g21
sbag1
(g8
g3
NtRp1813
(dp1814
g11
g12
sg13
S'Estrangelo TurAbdin'
p1815
sg15
I400
sg16
g12
sg17
g12
sg18
V/usr/X11/lib/X11/fonts/OTF/SyrCOMTurAbdin.otf
p1816
sg20
g21
sbag1
(g8
g3
NtRp1817
(dp1818
g11
g12
sg13
S'Adobe Gothic Std'
p1819
sg15
I700
sg16
g12
sg17
g12
sg18
V/Library/Fonts/AdobeGothicStd-Bold.otf
p1820
sg20
g21
sbag1
(g8
g3
NtRp1821
(dp1822
g11
g12
sg13
S'Sharp Sans No1 Medium'
p1823
sg15
I500
sg16
g12
sg17
g12
sg18
V/Library/Fonts/Sharp Sans No1 - Medium.otf
p1824
sg20
g21
sbag1
(g8
g3
NtRp1825
(dp1826
g11
g12
sg13
S'MS Reference Specialty'
p1827
sg15
I400
sg16
g12
sg17
g12
sg18
V/Library/Fonts/Microsoft/MS Reference Specialty.ttf
p1828
sg20
g21
sbag1
(g8
g3
NtRp1829
(dp1830
g11
g12
sg13
S'Tahoma'
p1831
sg15
I400
sg16
g12
sg17
g12
sg18
V/Library/Fonts/Tahoma.ttf
p1832
sg20
g21
sbag1
(g8
g3
NtRp1833
(dp1834
g11
g12
sg13
S'Gill Sans MT'
p1835
sg15
I700
sg16
g12
sg17
g12
sg18
V/Library/Fonts/Microsoft/Gill Sans MT Bold.ttf
p1836
sg20
g21
sbag1
(g8
g3
NtRp1837
(dp1838
g11
g32
sg13
S'Palatino Linotype'
p1839
sg15
I400
sg16
g12
sg17
g12
sg18
V/Library/Fonts/Microsoft/Palatino Linotype Italic.ttf
p1840
sg20
g21
sbag1
(g8
g3
NtRp1841
(dp1842
g11
g12
sg13
S'STIXSizeOneSym'
p1843
sg15
I400
sg16
g12
sg17
g12
sg18
V/Library/Fonts/STIXSizOneSymReg.otf
p1844
sg20
g21
sbag1
(g8
g3
NtRp1845
(dp1846
g11
g12
sg13
S'.SF NS Display Condensed'
p1847
sg15
I400
sg16
g12
sg17
g12
sg18
V/System/Library/Fonts/SFNSDisplayCondensed-Heavy.otf
p1848
sg20
g21
sbag1
(g8
g3
NtRp1849
(dp1850
g11
g12
sg13
S'Khmer Sangam MN'
p1851
sg15
I400
sg16
g12
sg17
g12
sg18
V/Library/Fonts/Khmer Sangam MN.ttf
p1852
sg20
g21
sbag1
(g8
g3
NtRp1853
(dp1854
g11
g32
sg13
S'Myriad Hebrew'
p1855
sg15
I400
sg16
g12
sg17
g12
sg18
V/Library/Fonts/MyriadHebrew-It.otf
p1856
sg20
g21
sbag1
(g8
g3
NtRp1857
(dp1858
g11
g12
sg13
S'.SF Compact Text'
p1859
sg15
I400
sg16
g12
sg17
g12
sg18
V/System/Library/Fonts/SFCompactText-Light.otf
p1860
sg20
g21
sbag1
(g8
g3
NtRp1861
(dp1862
g11
g12
sg13
S'.SF Compact Display'
p1863
sg15
I400
sg16
g12
sg17
g12
sg18
V/System/Library/Fonts/SFCompactDisplay-Ultralight.otf
p1864
sg20
g21
sbag1
(g8
g3
NtRp1865
(dp1866
g11
g12
sg13
S'Source Sans Pro'
p1867
sg15
I400
sg16
g12
sg17
g12
sg18
V/Library/Fonts/SourceSansPro-Regular.otf
p1868
sg20
g21
sbag1
(g8
g3
NtRp1869
(dp1870
g11
g12
sg13
S'.SF NS Display Condensed'
p1871
sg15
I400
sg16
g12
sg17
g12
sg18
V/System/Library/Fonts/SFNSDisplayCondensed-Medium.otf
p1872
sg20
g21
sbag1
(g8
g3
NtRp1873
(dp1874
g11
g12
sg13
S'Microsoft Tai Le'
p1875
sg15
I400
sg16
g12
sg17
g12
sg18
V/Library/Fonts/Microsoft/taile.ttf
p1876
sg20
g21
sbag1
(g8
g3
NtRp1877
(dp1878
g11
g12
sg13
S'.SF Compact Text'
p1879
sg15
I400
sg16
g12
sg17
g12
sg18
V/System/Library/Fonts/SFCompactText-LightItalic.otf
p1880
sg20
g21
sbag1
(g8
g3
NtRp1881
(dp1882
g11
g32
sg13
S'Meiryo'
p1883
sg15
I400
sg16
g12
sg17
g12
sg18
V/Library/Fonts/Microsoft/Meiryo Italic.ttf
p1884
sg20
g21
sbag1
(g8
g3
NtRp1885
(dp1886
g11
g12
sg13
S'Kozuka Mincho Pro'
p1887
sg15
I400
sg16
g12
sg17
g12
sg18
V/Library/Fonts/KozMinPro-ExtraLight.otf
p1888
sg20
g21
sbag1
(g8
g3
NtRp1889
(dp1890
g11
g12
sg13
S'.SF NS Text Condensed'
p1891
sg15
I400
sg16
g12
sg17
g12
sg18
V/System/Library/Fonts/SFNSTextCondensed-Medium.otf
p1892
sg20
g21
sbag1
(g8
g3
NtRp1893
(dp1894
g11
g12
sg13
S'.SF Compact Display'
p1895
sg15
I400
sg16
g12
sg17
g12
sg18
V/System/Library/Fonts/SFCompactDisplay-Heavy.otf
p1896
sg20
g21
sbag1
(g8
g3
NtRp1897
(dp1898
g11
g32
sg13
S'Source Sans Pro'
p1899
sg15
I200
sg16
g12
sg17
g12
sg18
V/Library/Fonts/SourceSansPro-LightIt.otf
p1900
sg20
g21
sbag1
(g8
g3
NtRp1901
(dp1902
g11
g12
sg13
S'Trattatello'
p1903
sg15
I400
sg16
g12
sg17
g12
sg18
V/Library/Fonts/Trattatello.ttf
p1904
sg20
g21
sbag1
(g8
g3
NtRp1905
(dp1906
g11
g12
sg13
S'Hobo Std'
p1907
sg15
I500
sg16
g12
sg17
g12
sg18
V/Library/Fonts/HoboStd.otf
p1908
sg20
g21
sbag1
(g8
g3
NtRp1909
(dp1910
g11
g12
sg13
S'Kozuka Mincho Pr6N'
p1911
sg15
I400
sg16
g12
sg17
g12
sg18
V/Library/Fonts/KozMinPr6N-Medium.otf
p1912
sg20
g21
sbag1
(g8
g3
NtRp1913
(dp1914
g11
g12
sg13
S'Calibri'
p1915
sg15
I400
sg16
g12
sg17
g12
sg18
V/Library/Fonts/Microsoft/Calibri.ttf
p1916
sg20
g21
sbag1
(g8
g3
NtRp1917
(dp1918
g11
g12
sg13
S'Nueva Std'
p1919
sg15
I700
sg16
g12
sg17
g12
sg18
V/Library/Fonts/NuevaStd-Bold.otf
p1920
sg20
g21
sbag1
(g8
g3
NtRp1921
(dp1922
g11
g12
sg13
S'.SF NS Display Condensed'
p1923
sg15
I400
sg16
g12
sg17
g12
sg18
V/System/Library/Fonts/SFNSDisplayCondensed-Regular.otf
p1924
sg20
g21
sbag1
(g8
g3
NtRp1925
(dp1926
g11
g12
sg13
S'STIXIntegralsD'
p1927
sg15
I400
sg16
g12
sg17
g12
sg18
V/Library/Fonts/STIXIntDReg.otf
p1928
sg20
g21
sbag1
(g8
g3
NtRp1929
(dp1930
g11
g12
sg13
S'Kozuka Gothic Pro'
p1931
sg15
I400
sg16
g12
sg17
g12
sg18
V/Library/Fonts/KozGoPro-Regular.otf
p1932
sg20
g21
sbag1
(g8
g3
NtRp1933
(dp1934
g11
g12
sg13
S'Sathu'
p1935
sg15
I400
sg16
g12
sg17
g12
sg18
V/Library/Fonts/Sathu.ttf
p1936
sg20
g21
sbasS'defaultFamily'
p1937
(dp1938
Vafm
p1939
VHelvetica
p1940
sVttf
p1941
VBitstream Vera Sans
p1942
ssS'ttffiles'
p1943
(lp1944
g19
ag25
ag29
ag34
ag38
ag42
ag46
ag50
ag54
ag58
ag62
ag67
ag71
ag75
ag79
ag83
ag87
ag91
ag95
ag99
ag103
ag107
ag111
ag115
ag119
ag123
ag127
ag131
ag135
ag139
ag143
ag147
ag151
ag155
ag159
ag163
aV/usr/X11/lib/X11/fonts/TTF/VeraIt.ttf
p1945
ag168
ag172
ag176
ag180
ag184
ag188
ag192
ag196
aV/Library/Fonts/NISC18030.ttf
p1946
ag200
ag204
ag208
ag212
ag216
ag220
ag224
ag228
ag232
ag236
ag240
ag244
ag248
ag252
ag256
ag260
ag264
ag268
ag272
ag276
ag280
ag284
ag288
ag292
ag296
ag300
ag304
ag308
ag312
ag316
ag320
ag324
ag328
ag332
ag336
ag340
ag344
ag348
ag352
ag356
ag360
ag364
ag368
ag372
ag376
ag380
ag384
ag388
ag392
ag396
ag400
ag404
ag408
ag412
ag416
ag420
ag424
ag428
ag432
ag436
ag440
ag444
aV/usr/X11/lib/X11/fonts/TTF/VeraSeBd.ttf
p1947
ag448
ag452
ag456
ag460
ag464
ag468
ag472
ag476
ag480
ag484
ag488
ag492
ag496
ag500
ag504
ag508
ag512
ag516
ag520
ag524
ag528
ag532
ag536
ag540
ag544
ag548
ag552
ag556
ag560
ag564
ag568
ag572
ag576
ag580
ag584
ag588
ag592
ag596
ag600
ag604
ag608
ag612
ag616
ag620
ag624
ag628
ag632
ag636
ag640
ag644
ag648
ag652
ag656
ag660
ag664
ag668
ag672
ag676
ag680
ag684
ag688
ag692
ag696
ag700
ag704
ag708
ag712
ag716
ag720
ag724
ag728
ag732
ag736
ag740
ag744
ag748
ag752
ag756
ag760
ag764
ag768
ag772
ag776
ag780
ag784
ag788
ag792
ag796
ag800
ag804
ag808
aV/Library/Fonts/Verdana.ttf
p1948
ag812
ag816
ag820
ag824
ag828
ag832
aV/Library/Fonts/Arial Italic.ttf
p1949
ag836
ag840
ag844
ag848
ag852
ag856
ag860
ag864
ag868
ag872
ag876
ag880
ag884
aV/Library/Fonts/Verdana Italic.ttf
p1950
ag888
ag892
ag896
ag900
ag904
ag908
ag912
aV/usr/X11/lib/X11/fonts/TTF/VeraMoBI.ttf
p1951
ag916
ag920
ag924
ag928
ag932
ag936
ag940
ag944
ag948
ag952
ag956
aV/Library/Fonts/Microsoft/Arial Bold Italic.ttf
p1952
ag960
ag964
ag968
ag972
ag976
ag980
ag984
ag988
ag992
ag996
ag1000
ag1004
ag1008
ag1012
ag1016
ag1020
ag1024
ag1028
ag1032
ag1036
ag1040
ag1044
ag1048
ag1052
aV/Library/Fonts/Verdana Bold.ttf
p1953
ag1056
ag1060
ag1064
ag1068
ag1072
aV/Library/Fonts/Arial.ttf
p1954
ag1076
ag1080
ag1084
aV/Library/Fonts/Microsoft/Times New Roman.ttf
p1955
ag1088
ag1092
ag1096
ag1100
ag1104
ag1108
ag1112
ag1116
ag1120
ag1124
aV/Library/Fonts/Times New Roman Italic.ttf
p1956
ag1128
ag1132
ag1136
ag1140
ag1144
ag1148
ag1152
ag1156
aV/Library/Fonts/Times New Roman Bold Italic.ttf
p1957
ag1160
ag1164
ag1168
aV/usr/X11/lib/X11/fonts/TTF/VeraMono.ttf
p1958
ag1172
ag1176
ag1180
ag1184
ag1188
ag1192
ag1196
ag1200
ag1204
ag1208
ag1212
ag1216
ag1220
ag1224
ag1228
ag1232
ag1236
ag1240
ag1244
ag1248
ag1252
aV/usr/X11/lib/X11/fonts/TTF/VeraMoBd.ttf
p1959
ag1256
ag1260
ag1264
ag1268
ag1272
ag1276
aV/usr/X11/lib/X11/fonts/TTF/VeraBd.ttf
p1960
ag1280
ag1284
ag1288
ag1292
ag1296
ag1300
ag1304
ag1308
ag1312
ag1316
ag1320
ag1324
ag1328
ag1332
ag1336
ag1340
ag1344
ag1348
ag1352
ag1356
ag1360
ag1364
ag1368
ag1372
ag1376
ag1380
ag1384
ag1388
ag1392
ag1396
ag1400
ag1404
ag1408
ag1412
aV/Library/Fonts/Microsoft/Verdana Bold Italic.ttf
p1961
ag1416
ag1420
aV/usr/X11/lib/X11/fonts/TTF/Vera.ttf
p1962
ag1424
ag1428
ag1432
ag1436
ag1440
ag1444
ag1448
ag1452
ag1456
ag1460
aV/Library/Fonts/Arial Bold.ttf
p1963
ag1464
ag1468
ag1472
ag1476
ag1480
ag1484
ag1488
ag1492
ag1496
ag1500
ag1504
ag1508
aV/usr/X11/lib/X11/fonts/TTF/VeraSe.ttf
p1964
ag1512
ag1516
ag1520
ag1524
ag1528
ag1532
ag1536
ag1540
ag1544
ag1548
ag1552
ag1556
ag1560
ag1564
ag1568
ag1572
ag1576
ag1580
ag1584
aV/usr/X11/lib/X11/fonts/TTF/VeraMoIt.ttf
p1965
ag1588
ag1592
ag1596
ag1600
ag1604
ag1608
ag1612
ag1616
ag1620
ag1624
ag1628
aV/Library/Fonts/Times New Roman Bold.ttf
p1966
ag1632
ag1636
ag1640
ag1644
ag1648
ag1652
ag1656
ag1660
ag1664
ag1668
ag1672
ag1676
ag1680
ag1684
ag1688
ag1692
ag1696
ag1700
ag1704
ag1708
ag1712
ag1716
ag1720
ag1724
ag1728
ag1732
ag1736
ag1740
ag1744
ag1748
ag1752
ag1756
ag1760
ag1764
ag1768
ag1772
ag1776
ag1780
ag1784
ag1788
ag1792
aV/usr/X11/lib/X11/fonts/TTF/VeraBI.ttf
p1967
ag1796
ag1800
ag1804
aV/Library/Fonts/Microsoft/Wingdings.ttf
p1968
ag1808
ag1812
ag1816
aV/Library/Fonts/Wingdings 2.ttf
p1969
ag1820
ag1824
ag1828
ag1832
aV/Library/Fonts/Brush Script.ttf
p1970
ag1836
ag1840
ag1844
ag1848
ag1852
ag1856
ag1860
ag1864
ag1868
ag1872
ag1876
ag1880
ag1884
ag1888
ag1892
ag1896
ag1900
ag1904
ag1908
ag1912
ag1916
ag1920
ag1924
ag1928
aV/Library/Fonts/Wingdings 3.ttf
p1971
ag1932
ag1936
asS'_FontManager__default_weight'
p1972
Vnormal
p1973
sS'_version'
p1974
I101
sS'default_size'
p1975
NsS'defaultFont'
p1976
(dp1977
g1939
V/Users/vmasrani/miniconda2/envs/cvi/lib/python2.7/site-packages/matplotlib/mpl-data/fonts/afm/pplb8a.afm
p1978
sg1941
g87
ssS'afmfiles'
p1979
(lp1980
g1978
aV/Users/vmasrani/miniconda2/envs/cvi/lib/python2.7/site-packages/matplotlib/mpl-data/fonts/afm/pbkli8a.afm
p1981
aV/Users/vmasrani/miniconda2/envs/cvi/lib/python2.7/site-packages/matplotlib/mpl-data/fonts/afm/pagd8a.afm
p1982
aV/Users/vmasrani/miniconda2/envs/cvi/lib/python2.7/site-packages/matplotlib/mpl-data/fonts/afm/ptmbi8a.afm
p1983
aV/Users/vmasrani/miniconda2/envs/cvi/lib/python2.7/site-packages/matplotlib/mpl-data/fonts/afm/cmmi10.afm
p1984
aV/Users/vmasrani/miniconda2/envs/cvi/lib/python2.7/site-packages/matplotlib/mpl-data/fonts/afm/pncbi8a.afm
p1985
aV/Users/vmasrani/miniconda2/envs/cvi/lib/python2.7/site-packages/matplotlib/mpl-data/fonts/afm/cmsy10.afm
p1986
aV/Users/vmasrani/miniconda2/envs/cvi/lib/python2.7/site-packages/matplotlib/mpl-data/fonts/afm/pbkl8a.afm
p1987
aV/Users/vmasrani/miniconda2/envs/cvi/lib/python2.7/site-packages/matplotlib/mpl-data/fonts/afm/phvr8an.afm
p1988
aV/Users/vmasrani/miniconda2/envs/cvi/lib/python2.7/site-packages/matplotlib/mpl-data/fonts/afm/ptmb8a.afm
p1989
aV/Users/vmasrani/miniconda2/envs/cvi/lib/python2.7/site-packages/matplotlib/mpl-data/fonts/afm/phvb8an.afm
p1990
aV/Users/vmasrani/miniconda2/envs/cvi/lib/python2.7/site-packages/matplotlib/mpl-data/fonts/pdfcorefonts/Courier.afm
p1991
aV/Users/vmasrani/miniconda2/envs/cvi/lib/python2.7/site-packages/matplotlib/mpl-data/fonts/pdfcorefonts/Courier-Oblique.afm
p1992
aV/Users/vmasrani/miniconda2/envs/cvi/lib/python2.7/site-packages/matplotlib/mpl-data/fonts/afm/pbkd8a.afm
p1993
aV/Users/vmasrani/miniconda2/envs/cvi/lib/python2.7/site-packages/matplotlib/mpl-data/fonts/afm/pzcmi8a.afm
p1994
aV/Users/vmasrani/miniconda2/envs/cvi/lib/python2.7/site-packages/matplotlib/mpl-data/fonts/afm/putri8a.afm
p1995
aV/Users/vmasrani/miniconda2/envs/cvi/lib/python2.7/site-packages/matplotlib/mpl-data/fonts/afm/phvbo8a.afm
p1996
aV/Users/vmasrani/miniconda2/envs/cvi/lib/python2.7/site-packages/matplotlib/mpl-data/fonts/pdfcorefonts/Times-BoldItalic.afm
p1997
aV/Users/vmasrani/miniconda2/envs/cvi/lib/python2.7/site-packages/matplotlib/mpl-data/fonts/afm/putbi8a.afm
p1998
aV/Users/vmasrani/miniconda2/envs/cvi/lib/python2.7/site-packages/matplotlib/mpl-data/fonts/afm/pcrbo8a.afm
p1999
aV/Users/vmasrani/miniconda2/envs/cvi/lib/python2.7/site-packages/matplotlib/mpl-data/fonts/pdfcorefonts/Helvetica-Oblique.afm
p2000
aV/Users/vmasrani/miniconda2/envs/cvi/lib/python2.7/site-packages/matplotlib/mpl-data/fonts/afm/putr8a.afm
p2001
aV/Users/vmasrani/miniconda2/envs/cvi/lib/python2.7/site-packages/matplotlib/mpl-data/fonts/afm/pcrro8a.afm
p2002
aV/Users/vmasrani/miniconda2/envs/cvi/lib/python2.7/site-packages/matplotlib/mpl-data/fonts/afm/pplbi8a.afm
p2003
aV/Users/vmasrani/miniconda2/envs/cvi/lib/python2.7/site-packages/matplotlib/mpl-data/fonts/afm/cmex10.afm
p2004
aV/Users/vmasrani/miniconda2/envs/cvi/lib/python2.7/site-packages/matplotlib/mpl-data/fonts/afm/cmtt10.afm
p2005
aV/Users/vmasrani/miniconda2/envs/cvi/lib/python2.7/site-packages/matplotlib/mpl-data/fonts/afm/ptmr8a.afm
p2006
aV/Users/vmasrani/miniconda2/envs/cvi/lib/python2.7/site-packages/matplotlib/mpl-data/fonts/afm/phvlo8a.afm
p2007
aV/Users/vmasrani/miniconda2/envs/cvi/lib/python2.7/site-packages/matplotlib/mpl-data/fonts/pdfcorefonts/Times-Bold.afm
p2008
aV/Users/vmasrani/miniconda2/envs/cvi/lib/python2.7/site-packages/matplotlib/mpl-data/fonts/afm/pcrb8a.afm
p2009
aV/Users/vmasrani/miniconda2/envs/cvi/lib/python2.7/site-packages/matplotlib/mpl-data/fonts/pdfcorefonts/Helvetica-BoldOblique.afm
p2010
aV/Users/vmasrani/miniconda2/envs/cvi/lib/python2.7/site-packages/matplotlib/mpl-data/fonts/afm/pplri8a.afm
p2011
aV/Users/vmasrani/miniconda2/envs/cvi/lib/python2.7/site-packages/matplotlib/mpl-data/fonts/afm/phvl8a.afm
p2012
aV/Users/vmasrani/miniconda2/envs/cvi/lib/python2.7/site-packages/matplotlib/mpl-data/fonts/afm/phvbo8an.afm
p2013
aV/Users/vmasrani/miniconda2/envs/cvi/lib/python2.7/site-packages/matplotlib/mpl-data/fonts/pdfcorefonts/Courier-BoldOblique.afm
p2014
aV/Users/vmasrani/miniconda2/envs/cvi/lib/python2.7/site-packages/matplotlib/mpl-data/fonts/afm/cmr10.afm
p2015
aV/Users/vmasrani/miniconda2/envs/cvi/lib/python2.7/site-packages/matplotlib/mpl-data/fonts/pdfcorefonts/Times-Roman.afm
p2016
aV/Users/vmasrani/miniconda2/envs/cvi/lib/python2.7/site-packages/matplotlib/mpl-data/fonts/afm/pzdr.afm
p2017
aV/Users/vmasrani/miniconda2/envs/cvi/lib/python2.7/site-packages/matplotlib/mpl-data/fonts/afm/phvro8a.afm
p2018
aV/Users/vmasrani/miniconda2/envs/cvi/lib/python2.7/site-packages/matplotlib/mpl-data/fonts/pdfcorefonts/Courier-Bold.afm
p2019
aV/Users/vmasrani/miniconda2/envs/cvi/lib/python2.7/site-packages/matplotlib/mpl-data/fonts/afm/pbkdi8a.afm
p2020
aV/Users/vmasrani/miniconda2/envs/cvi/lib/python2.7/site-packages/matplotlib/mpl-data/fonts/pdfcorefonts/Helvetica-Bold.afm
p2021
aV/Users/vmasrani/miniconda2/envs/cvi/lib/python2.7/site-packages/matplotlib/mpl-data/fonts/pdfcorefonts/Symbol.afm
p2022
aV/Users/vmasrani/miniconda2/envs/cvi/lib/python2.7/site-packages/matplotlib/mpl-data/fonts/pdfcorefonts/ZapfDingbats.afm
p2023
aV/Users/vmasrani/miniconda2/envs/cvi/lib/python2.7/site-packages/matplotlib/mpl-data/fonts/afm/putb8a.afm
p2024
aV/Users/vmasrani/miniconda2/envs/cvi/lib/python2.7/site-packages/matplotlib/mpl-data/fonts/afm/phvro8an.afm
p2025
aV/Users/vmasrani/miniconda2/envs/cvi/lib/python2.7/site-packages/matplotlib/mpl-data/fonts/afm/pncb8a.afm
p2026
aV/Users/vmasrani/miniconda2/envs/cvi/lib/python2.7/site-packages/matplotlib/mpl-data/fonts/pdfcorefonts/Times-Italic.afm
p2027
aV/Users/vmasrani/miniconda2/envs/cvi/lib/python2.7/site-packages/matplotlib/mpl-data/fonts/afm/pagk8a.afm
p2028
aV/Users/vmasrani/miniconda2/envs/cvi/lib/python2.7/site-packages/matplotlib/mpl-data/fonts/pdfcorefonts/Helvetica.afm
p2029
aV/Users/vmasrani/miniconda2/envs/cvi/lib/python2.7/site-packages/matplotlib/mpl-data/fonts/afm/psyr.afm
p2030
aV/Users/vmasrani/miniconda2/envs/cvi/lib/python2.7/site-packages/matplotlib/mpl-data/fonts/afm/pplr8a.afm
p2031
aV/Users/vmasrani/miniconda2/envs/cvi/lib/python2.7/site-packages/matplotlib/mpl-data/fonts/afm/pcrr8a.afm
p2032
aV/Users/vmasrani/miniconda2/envs/cvi/lib/python2.7/site-packages/matplotlib/mpl-data/fonts/afm/pncr8a.afm
p2033
aV/Users/vmasrani/miniconda2/envs/cvi/lib/python2.7/site-packages/matplotlib/mpl-data/fonts/afm/pncri8a.afm
p2034
aV/Users/vmasrani/miniconda2/envs/cvi/lib/python2.7/site-packages/matplotlib/mpl-data/fonts/afm/phvr8a.afm
p2035
aV/Users/vmasrani/miniconda2/envs/cvi/lib/python2.7/site-packages/matplotlib/mpl-data/fonts/afm/ptmri8a.afm
p2036
aV/Users/vmasrani/miniconda2/envs/cvi/lib/python2.7/site-packages/matplotlib/mpl-data/fonts/afm/phvb8a.afm
p2037
aV/Users/vmasrani/miniconda2/envs/cvi/lib/python2.7/site-packages/matplotlib/mpl-data/fonts/afm/pagdo8a.afm
p2038
aV/Users/vmasrani/miniconda2/envs/cvi/lib/python2.7/site-packages/matplotlib/mpl-data/fonts/afm/pagko8a.afm
p2039
aV/usr/X11/lib/X11/fonts/Type1/UTB_____.afm
p2040
aV/usr/X11/lib/X11/fonts/Type1/c0583bt_.afm
p2041
aV/usr/X11/lib/X11/fonts/Type1/l049036t.afm
p2042
aV/usr/X11/lib/X11/fonts/Type1/c0649bt_.afm
p2043
aV/usr/X11/lib/X11/fonts/Type1/UTRG____.afm
p2044
aV/usr/X11/lib/X11/fonts/Type1/c0582bt_.afm
p2045
aV/usr/X11/lib/X11/fonts/Type1/c0648bt_.afm
p2046
aV/usr/X11/lib/X11/fonts/Type1/c0633bt_.afm
p2047
aV/usr/X11/lib/X11/fonts/Type1/l048013t.afm
p2048
aV/usr/X11/lib/X11/fonts/Type1/courb.afm
p2049
aV/usr/X11/lib/X11/fonts/Type1/c0419bt_.afm
p2050
aV/usr/X11/lib/X11/fonts/Type1/UTI_____.afm
p2051
aV/usr/X11/lib/X11/fonts/Type1/l049016t.afm
p2052
aV/usr/X11/lib/X11/fonts/Type1/l048033t.afm
p2053
aV/usr/X11/lib/X11/fonts/Type1/l048016t.afm
p2054
aV/usr/X11/lib/X11/fonts/Type1/l048036t.afm
p2055
aV/usr/X11/lib/X11/fonts/Type1/courbi.afm
p2056
aV/usr/X11/lib/X11/fonts/Type1/c0632bt_.afm
p2057
aV/usr/X11/lib/X11/fonts/Type1/l049013t.afm
p2058
aV/usr/X11/lib/X11/fonts/Type1/c0611bt_.afm
p2059
aV/usr/X11/lib/X11/fonts/Type1/l047036t.afm
p2060
aV/usr/X11/lib/X11/fonts/Type1/l047016t.afm
p2061
aV/usr/X11/lib/X11/fonts/Type1/l047033t.afm
p2062
aV/usr/X11/lib/X11/fonts/Type1/l047013t.afm
p2063
aV/usr/X11/lib/X11/fonts/Type1/l049033t.afm
p2064
aV/usr/X11/lib/X11/fonts/Type1/UTBI____.afm
p2065
aV/usr/X11/lib/X11/fonts/Type1/cour.afm
p2066
aV/usr/X11/lib/X11/fonts/Type1/couri.afm
p2067
asS'afmlist'
p2068
(lp2069
g1
(g8
g3
NtRp2070
(dp2071
g11
Vnormal
p2072
sg13
S'Palatino'
p2073
sg15
I700
sg16
g2072
sg17
g2072
sg18
g1978
sg20
Vscalable
p2074
sbag1
(g8
g3
NtRp2075
(dp2076
g11
Vitalic
p2077
sg13
S'ITC Bookman'
p2078
sg15
I200
sg16
g2072
sg17
g2072
sg18
g1981
sg20
g2074
sbag1
(g8
g3
NtRp2079
(dp2080
g11
g2072
sg13
S'ITC Avant Garde Gothic'
p2081
sg15
I600
sg16
g2072
sg17
g2072
sg18
g1982
sg20
g2074
sbag1
(g8
g3
NtRp2082
(dp2083
g11
g2077
sg13
S'Times'
p2084
sg15
I700
sg16
g2072
sg17
g2072
sg18
g1983
sg20
g2074
sbag1
(g8
g3
NtRp2085
(dp2086
g11
g2077
sg13
S'Computer Modern'
p2087
sg15
I500
sg16
g2072
sg17
g2072
sg18
g1984
sg20
g2074
sbag1
(g8
g3
NtRp2088
(dp2089
g11
g2077
sg13
S'New Century Schoolbook'
p2090
sg15
I700
sg16
g2072
sg17
g2072
sg18
g1985
sg20
g2074
sbag1
(g8
g3
NtRp2091
(dp2092
g11
g2077
sg13
S'Computer Modern'
p2093
sg15
I500
sg16
g2072
sg17
g2072
sg18
g1986
sg20
g2074
sbag1
(g8
g3
NtRp2094
(dp2095
g11
g2072
sg13
S'ITC Bookman'
p2096
sg15
I200
sg16
g2072
sg17
g2072
sg18
g1987
sg20
g2074
sbag1
(g8
g3
NtRp2097
(dp2098
g11
g2072
sg13
S'Helvetica'
p2099
sg15
I500
sg16
Vcondensed
p2100
sg17
g2072
sg18
g1988
sg20
g2074
sbag1
(g8
g3
NtRp2101
(dp2102
g11
g2072
sg13
S'Times'
p2103
sg15
I700
sg16
g2072
sg17
g2072
sg18
g1989
sg20
g2074
sbag1
(g8
g3
NtRp2104
(dp2105
g11
g2072
sg13
S'Helvetica'
p2106
sg15
I700
sg16
g2100
sg17
g2072
sg18
g1990
sg20
g2074
sbag1
(g8
g3
NtRp2107
(dp2108
g11
g2072
sg13
S'Courier'
p2109
sg15
I500
sg16
g2072
sg17
g2072
sg18
g1991
sg20
g2074
sbag1
(g8
g3
NtRp2110
(dp2111
g11
g2077
sg13
S'Courier'
p2112
sg15
I500
sg16
g2072
sg17
g2072
sg18
g1992
sg20
g2074
sbag1
(g8
g3
NtRp2113
(dp2114
g11
g2072
sg13
S'ITC Bookman'
p2115
sg15
I600
sg16
g2072
sg17
g2072
sg18
g1993
sg20
g2074
sbag1
(g8
g3
NtRp2116
(dp2117
g11
g2077
sg13
S'ITC Zapf Chancery'
p2118
sg15
I500
sg16
g2072
sg17
g2072
sg18
g1994
sg20
g2074
sbag1
(g8
g3
NtRp2119
(dp2120
g11
g2077
sg13
S'Utopia'
p2121
sg15
I400
sg16
g2072
sg17
g2072
sg18
g1995
sg20
g2074
sbag1
(g8
g3
NtRp2122
(dp2123
g11
g2077
sg13
S'Helvetica'
p2124
sg15
I700
sg16
g2072
sg17
g2072
sg18
g1996
sg20
g2074
sbag1
(g8
g3
NtRp2125
(dp2126
g11
g2077
sg13
S'Times'
p2127
sg15
I700
sg16
g2072
sg17
g2072
sg18
g1997
sg20
g2074
sbag1
(g8
g3
NtRp2128
(dp2129
g11
g2077
sg13
S'Utopia'
p2130
sg15
I700
sg16
g2072
sg17
g2072
sg18
g1998
sg20
g2074
sbag1
(g8
g3
NtRp2131
(dp2132
g11
g2077
sg13
S'Courier'
p2133
sg15
I700
sg16
g2072
sg17
g2072
sg18
g1999
sg20
g2074
sbag1
(g8
g3
NtRp2134
(dp2135
g11
g2077
sg13
S'Helvetica'
p2136
sg15
I500
sg16
g2072
sg17
g2072
sg18
g2000
sg20
g2074
sbag1
(g8
g3
NtRp2137
(dp2138
g11
g2072
sg13
S'Utopia'
p2139
sg15
I400
sg16
g2072
sg17
g2072
sg18
g2001
sg20
g2074
sbag1
(g8
g3
NtRp2140
(dp2141
g11
g2077
sg13
S'Courier'
p2142
sg15
I500
sg16
g2072
sg17
g2072
sg18
g2002
sg20
g2074
sbag1
(g8
g3
NtRp2143
(dp2144
g11
g2077
sg13
S'Palatino'
p2145
sg15
I700
sg16
g2072
sg17
g2072
sg18
g2003
sg20
g2074
sbag1
(g8
g3
NtRp2146
(dp2147
g11
g2072
sg13
S'Computer Modern'
p2148
sg15
I500
sg16
g2072
sg17
g2072
sg18
g2004
sg20
g2074
sbag1
(g8
g3
NtRp2149
(dp2150
g11
g2072
sg13
S'Computer Modern'
p2151
sg15
I500
sg16
g2072
sg17
g2072
sg18
g2005
sg20
g2074
sbag1
(g8
g3
NtRp2152
(dp2153
g11
g2072
sg13
S'Times'
p2154
sg15
I500
sg16
g2072
sg17
g2072
sg18
g2006
sg20
g2074
sbag1
(g8
g3
NtRp2155
(dp2156
g11
g2077
sg13
S'Helvetica'
p2157
sg15
I200
sg16
g2072
sg17
g2072
sg18
g2007
sg20
g2074
sbag1
(g8
g3
NtRp2158
(dp2159
g11
g2072
sg13
S'Times'
p2160
sg15
I700
sg16
g2072
sg17
g2072
sg18
g2008
sg20
g2074
sbag1
(g8
g3
NtRp2161
(dp2162
g11
g2072
sg13
S'Courier'
p2163
sg15
I700
sg16
g2072
sg17
g2072
sg18
g2009
sg20
g2074
sbag1
(g8
g3
NtRp2164
(dp2165
g11
g2077
sg13
S'Helvetica'
p2166
sg15
I700
sg16
g2072
sg17
g2072
sg18
g2010
sg20
g2074
sbag1
(g8
g3
NtRp2167
(dp2168
g11
g2077
sg13
S'Palatino'
p2169
sg15
I500
sg16
g2072
sg17
g2072
sg18
g2011
sg20
g2074
sbag1
(g8
g3
NtRp2170
(dp2171
g11
g2072
sg13
S'Helvetica'
p2172
sg15
I200
sg16
g2072
sg17
g2072
sg18
g2012
sg20
g2074
sbag1
(g8
g3
NtRp2173
(dp2174
g11
g2077
sg13
S'Helvetica'
p2175
sg15
I700
sg16
g2100
sg17
g2072
sg18
g2013
sg20
g2074
sbag1
(g8
g3
NtRp2176
(dp2177
g11
g2077
sg13
S'Courier'
p2178
sg15
I700
sg16
g2072
sg17
g2072
sg18
g2014
sg20
g2074
sbag1
(g8
g3
NtRp2179
(dp2180
g11
g2072
sg13
S'Computer Modern'
p2181
sg15
I500
sg16
g2072
sg17
g2072
sg18
g2015
sg20
g2074
sbag1
(g8
g3
NtRp2182
(dp2183
g11
g2072
sg13
S'Times'
p2184
sg15
I500
sg16
g2072
sg17
g2072
sg18
g2016
sg20
g2074
sbag1
(g8
g3
NtRp2185
(dp2186
g11
g2072
sg13
S'ITC Zapf Dingbats'
p2187
sg15
I500
sg16
g2072
sg17
g2072
sg18
g2017
sg20
g2074
sbag1
(g8
g3
NtRp2188
(dp2189
g11
g2077
sg13
S'Helvetica'
p2190
sg15
I500
sg16
g2072
sg17
g2072
sg18
g2018
sg20
g2074
sbag1
(g8
g3
NtRp2191
(dp2192
g11
g2072
sg13
S'Courier'
p2193
sg15
I700
sg16
g2072
sg17
g2072
sg18
g2019
sg20
g2074
sbag1
(g8
g3
NtRp2194
(dp2195
g11
g2077
sg13
S'ITC Bookman'
p2196
sg15
I600
sg16
g2072
sg17
g2072
sg18
g2020
sg20
g2074
sbag1
(g8
g3
NtRp2197
(dp2198
g11
g2072
sg13
S'Helvetica'
p2199
sg15
I700
sg16
g2072
sg17
g2072
sg18
g2021
sg20
g2074
sbag1
(g8
g3
NtRp2200
(dp2201
g11
g2072
sg13
S'Symbol'
p2202
sg15
I500
sg16
g2072
sg17
g2072
sg18
g2022
sg20
g2074
sbag1
(g8
g3
NtRp2203
(dp2204
g11
g2072
sg13
S'ZapfDingbats'
p2205
sg15
I500
sg16
g2072
sg17
g2072
sg18
g2023
sg20
g2074
sbag1
(g8
g3
NtRp2206
(dp2207
g11
g2072
sg13
S'Utopia'
p2208
sg15
I700
sg16
g2072
sg17
g2072
sg18
g2024
sg20
g2074
sbag1
(g8
g3
NtRp2209
(dp2210
g11
g2077
sg13
S'Helvetica'
p2211
sg15
I500
sg16
g2100
sg17
g2072
sg18
g2025
sg20
g2074
sbag1
(g8
g3
NtRp2212
(dp2213
g11
g2072
sg13
S'New Century Schoolbook'
p2214
sg15
I700
sg16
g2072
sg17
g2072
sg18
g2026
sg20
g2074
sbag1
(g8
g3
NtRp2215
(dp2216
g11
g2077
sg13
S'Times'
p2217
sg15
I500
sg16
g2072
sg17
g2072
sg18
g2027
sg20
g2074
sbag1
(g8
g3
NtRp2218
(dp2219
g11
g2072
sg13
S'ITC Avant Garde Gothic'
p2220
sg15
I400
sg16
g2072
sg17
g2072
sg18
g2028
sg20
g2074
sbag1
(g8
g3
NtRp2221
(dp2222
g11
g2072
sg13
S'Helvetica'
p2223
sg15
I500
sg16
g2072
sg17
g2072
sg18
g2029
sg20
g2074
sbag1
(g8
g3
NtRp2224
(dp2225
g11
g2072
sg13
S'Symbol'
p2226
sg15
I500
sg16
g2072
sg17
g2072
sg18
g2030
sg20
g2074
sbag1
(g8
g3
NtRp2227
(dp2228
g11
g2072
sg13
S'Palatino'
p2229
sg15
I500
sg16
g2072
sg17
g2072
sg18
g2031
sg20
g2074
sbag1
(g8
g3
NtRp2230
(dp2231
g11
g2072
sg13
S'Courier'
p2232
sg15
I500
sg16
g2072
sg17
g2072
sg18
g2032
sg20
g2074
sbag1
(g8
g3
NtRp2233
(dp2234
g11
g2072
sg13
S'New Century Schoolbook'
p2235
sg15
I500
sg16
g2072
sg17
g2072
sg18
g2033
sg20
g2074
sbag1
(g8
g3
NtRp2236
(dp2237
g11
g2077
sg13
S'New Century Schoolbook'
p2238
sg15
I500
sg16
g2072
sg17
g2072
sg18
g2034
sg20
g2074
sbag1
(g8
g3
NtRp2239
(dp2240
g11
g2072
sg13
S'Helvetica'
p2241
sg15
I500
sg16
g2072
sg17
g2072
sg18
g2035
sg20
g2074
sbag1
(g8
g3
NtRp2242
(dp2243
g11
g2077
sg13
S'Times'
p2244
sg15
I500
sg16
g2072
sg17
g2072
sg18
g2036
sg20
g2074
sbag1
(g8
g3
NtRp2245
(dp2246
g11
g2072
sg13
S'Helvetica'
p2247
sg15
I700
sg16
g2072
sg17
g2072
sg18
g2037
sg20
g2074
sbag1
(g8
g3
NtRp2248
(dp2249
g11
g2077
sg13
S'ITC Avant Garde Gothic'
p2250
sg15
I600
sg16
g2072
sg17
g2072
sg18
g2038
sg20
g2074
sbag1
(g8
g3
NtRp2251
(dp2252
g11
g2077
sg13
S'ITC Avant Garde Gothic'
p2253
sg15
I400
sg16
g2072
sg17
g2072
sg18
g2039
sg20
g2074
sbag1
(g8
g3
NtRp2254
(dp2255
g11
g2072
sg13
S'Utopia'
p2256
sg15
I700
sg16
g2072
sg17
g2072
sg18
g2040
sg20
g2074
sbag1
(g8
g3
NtRp2257
(dp2258
g11
g2072
sg13
S'Courier 10 Pitch'
p2259
sg15
I700
sg16
g2072
sg17
g2072
sg18
g2041
sg20
g2074
sbag1
(g8
g3
NtRp2260
(dp2261
g11
g2077
sg13
S'Luxi Serif'
p2262
sg15
I700
sg16
g2072
sg17
g2072
sg18
g2042
sg20
g2074
sbag1
(g8
g3
NtRp2263
(dp2264
g11
g2077
sg13
S'Bitstream Charter'
p2265
sg15
I400
sg16
g2072
sg17
g2072
sg18
g2043
sg20
g2074
sbag1
(g8
g3
NtRp2266
(dp2267
g11
g2072
sg13
S'Utopia'
p2268
sg15
I400
sg16
g2072
sg17
g2072
sg18
g2044
sg20
g2074
sbag1
(g8
g3
NtRp2269
(dp2270
g11
g2077
sg13
S'Courier 10 Pitch'
p2271
sg15
I400
sg16
g2072
sg17
g2072
sg18
g2045
sg20
g2074
sbag1
(g8
g3
NtRp2272
(dp2273
g11
g2072
sg13
S'Bitstream Charter'
p2274
sg15
I400
sg16
g2072
sg17
g2072
sg18
g2046
sg20
g2074
sbag1
(g8
g3
NtRp2275
(dp2276
g11
g2077
sg13
S'Bitstream Charter'
p2277
sg15
I700
sg16
g2072
sg17
g2072
sg18
g2047
sg20
g2074
sbag1
(g8
g3
NtRp2278
(dp2279
g11
g2072
sg13
S'Luxi Sans'
p2280
sg15
I400
sg16
g2072
sg17
g2072
sg18
g2048
sg20
g2074
sbag1
(g8
g3
NtRp2281
(dp2282
g11
g2072
sg13
S'Courier'
p2283
sg15
I700
sg16
g2072
sg17
g2072
sg18
g2049
sg20
g2074
sbag1
(g8
g3
NtRp2284
(dp2285
g11
g2072
sg13
S'Courier 10 Pitch'
p2286
sg15
I400
sg16
g2072
sg17
g2072
sg18
g2050
sg20
g2074
sbag1
(g8
g3
NtRp2287
(dp2288
g11
g2077
sg13
S'Utopia'
p2289
sg15
I400
sg16
g2072
sg17
g2072
sg18
g2051
sg20
g2074
sbag1
(g8
g3
NtRp2290
(dp2291
g11
g2072
sg13
S'Luxi Serif'
p2292
sg15
I700
sg16
g2072
sg17
g2072
sg18
g2052
sg20
g2074
sbag1
(g8
g3
NtRp2293
(dp2294
g11
g2077
sg13
S'Luxi Sans'
p2295
sg15
I400
sg16
g2072
sg17
g2072
sg18
g2053
sg20
g2074
sbag1
(g8
g3
NtRp2296
(dp2297
g11
g2072
sg13
S'Luxi Sans'
p2298
sg15
I700
sg16
g2072
sg17
g2072
sg18
g2054
sg20
g2074
sbag1
(g8
g3
NtRp2299
(dp2300
g11
g2077
sg13
S'Luxi Sans'
p2301
sg15
I700
sg16
g2072
sg17
g2072
sg18
g2055
sg20
g2074
sbag1
(g8
g3
NtRp2302
(dp2303
g11
g2077
sg13
S'Courier'
p2304
sg15
I700
sg16
g2072
sg17
g2072
sg18
g2056
sg20
g2074
sbag1
(g8
g3
NtRp2305
(dp2306
g11
g2072
sg13
S'Bitstream Charter'
p2307
sg15
I700
sg16
g2072
sg17
g2072
sg18
g2057
sg20
g2074
sbag1
(g8
g3
NtRp2308
(dp2309
g11
g2072
sg13
S'Luxi Serif'
p2310
sg15
I400
sg16
g2072
sg17
g2072
sg18
g2058
sg20
g2074
sbag1
(g8
g3
NtRp2311
(dp2312
g11
g2077
sg13
S'Courier 10 Pitch'
p2313
sg15
I700
sg16
g2072
sg17
g2072
sg18
g2059
sg20
g2074
sbag1
(g8
g3
NtRp2314
(dp2315
g11
g2077
sg13
S'Luxi Mono'
p2316
sg15
I700
sg16
g2072
sg17
g2072
sg18
g2060
sg20
g2074
sbag1
(g8
g3
NtRp2317
(dp2318
g11
g2072
sg13
S'Luxi Mono'
p2319
sg15
I700
sg16
g2072
sg17
g2072
sg18
g2061
sg20
g2074
sbag1
(g8
g3
NtRp2320
(dp2321
g11
g2077
sg13
S'Luxi Mono'
p2322
sg15
I400
sg16
g2072
sg17
g2072
sg18
g2062
sg20
g2074
sbag1
(g8
g3
NtRp2323
(dp2324
g11
g2072
sg13
S'Luxi Mono'
p2325
sg15
I400
sg16
g2072
sg17
g2072
sg18
g2063
sg20
g2074
sbag1
(g8
g3
NtRp2326
(dp2327
g11
g2077
sg13
S'Luxi Serif'
p2328
sg15
I400
sg16
g2072
sg17
g2072
sg18
g2064
sg20
g2074
sbag1
(g8
g3
NtRp2329
(dp2330
g11
g2077
sg13
S'Utopia'
p2331
sg15
I700
sg16
g2072
sg17
g2072
sg18
g2065
sg20
g2074
sbag1
(g8
g3
NtRp2332
(dp2333
g11
g2072
sg13
S'Courier'
p2334
sg15
I400
sg16
g2072
sg17
g2072
sg18
g2066
sg20
g2074
sbag1
(g8
g3
NtRp2335
(dp2336
g11
g2077
sg13
S'Courier'
p2337
sg15
I400
sg16
g2072
sg17
g2072
sg18
g2067
sg20
g2074
sbasb.